	.file "system.pas"
# Begin asmlist al_pure_assembler

.section .text.n_system_$$_atomicexchange$longint$longint$$longint,"x"
	.balign 16,0x90
.globl	SYSTEM_$$_ATOMICEXCHANGE$LONGINT$LONGINT$$LONGINT
SYSTEM_$$_ATOMICEXCHANGE$LONGINT$LONGINT$$LONGINT:
.Lc693:
.seh_proc SYSTEM_$$_ATOMICEXCHANGE$LONGINT$LONGINT$$LONGINT
# [misc.inc]
# [63] asm
	pushq	%rbp
.seh_pushreg %rbp
.Lc695:
.Lc696:
	movq	%rsp,%rbp
.Lc697:
	leaq	-16(%rsp),%rsp
.seh_stackalloc 16
.seh_endprologue
# Var $result located at rbp-4, size=OS_S32
#  CPU ATHLON64
# [64] mov    eax, val
	movl	%edx,%eax
# [66] xchg dword ptr [target], eax
	xchgl	%eax,(%rcx)
#  CPU ATHLON64
# [67] end;
	leaq	(%rbp),%rsp
	popq	%rbp
	ret
.seh_endproc
.Lc694:

.section .text.n_system_$$_atomicexchange$int64$int64$$int64,"x"
	.balign 16,0x90
.globl	SYSTEM_$$_ATOMICEXCHANGE$INT64$INT64$$INT64
SYSTEM_$$_ATOMICEXCHANGE$INT64$INT64$$INT64:
.Lc698:
.seh_proc SYSTEM_$$_ATOMICEXCHANGE$INT64$INT64$$INT64
# [70] asm
	pushq	%rbp
.seh_pushreg %rbp
.Lc700:
.Lc701:
	movq	%rsp,%rbp
.Lc702:
	leaq	-16(%rsp),%rsp
.seh_stackalloc 16
.seh_endprologue
# Var $result located at rbp-8, size=OS_S64
#  CPU ATHLON64
# [71] mov    rax, val
	movq	%rdx,%rax
# [73] xchg qword ptr [target], rax
	xchgq	%rax,(%rcx)
#  CPU ATHLON64
# [74] end;
	leaq	(%rbp),%rsp
	popq	%rbp
	ret
.seh_endproc
.Lc699:

.section .text.n_system_$$_atomicincrement$longint$$longint,"x"
	.balign 16,0x90
.globl	SYSTEM_$$_ATOMICINCREMENT$LONGINT$$LONGINT
SYSTEM_$$_ATOMICINCREMENT$LONGINT$$LONGINT:
.Lc703:
.seh_proc SYSTEM_$$_ATOMICINCREMENT$LONGINT$$LONGINT
# [77] asm
	pushq	%rbp
.seh_pushreg %rbp
.Lc705:
.Lc706:
	movq	%rsp,%rbp
.Lc707:
	leaq	-16(%rsp),%rsp
.seh_stackalloc 16
.seh_endprologue
# Var $result located at rbp-4, size=OS_S32
#  CPU ATHLON64
# [78] mov eax, 1
	movl	$1,%eax
# [79] lock xadd dword ptr [target], eax
	lock
	xaddl	%eax,(%rcx)
# [80] inc eax
	incl	%eax
#  CPU ATHLON64
# [81] end;
	leaq	(%rbp),%rsp
	popq	%rbp
	ret
.seh_endproc
.Lc704:

.section .text.n_system_$$_atomicincrement$int64$$int64,"x"
	.balign 16,0x90
.globl	SYSTEM_$$_ATOMICINCREMENT$INT64$$INT64
SYSTEM_$$_ATOMICINCREMENT$INT64$$INT64:
.Lc708:
.seh_proc SYSTEM_$$_ATOMICINCREMENT$INT64$$INT64
# [84] asm
	pushq	%rbp
.seh_pushreg %rbp
.Lc710:
.Lc711:
	movq	%rsp,%rbp
.Lc712:
	leaq	-16(%rsp),%rsp
.seh_stackalloc 16
.seh_endprologue
# Var $result located at rbp-8, size=OS_S64
#  CPU ATHLON64
# [85] mov rax, 1
	movq	$1,%rax
# [86] lock xadd qword ptr [target], rax
	lock
	xaddq	%rax,(%rcx)
# [87] inc rax
	incq	%rax
#  CPU ATHLON64
# [88] end;
	leaq	(%rbp),%rsp
	popq	%rbp
	ret
.seh_endproc
.Lc709:

.section .text.n_system_$$_atomicdecrement$longint$$longint,"x"
	.balign 16,0x90
.globl	SYSTEM_$$_ATOMICDECREMENT$LONGINT$$LONGINT
SYSTEM_$$_ATOMICDECREMENT$LONGINT$$LONGINT:
.Lc713:
.seh_proc SYSTEM_$$_ATOMICDECREMENT$LONGINT$$LONGINT
# [91] asm
	pushq	%rbp
.seh_pushreg %rbp
.Lc715:
.Lc716:
	movq	%rsp,%rbp
.Lc717:
	leaq	-16(%rsp),%rsp
.seh_stackalloc 16
.seh_endprologue
# Var $result located at rbp-4, size=OS_S32
#  CPU ATHLON64
# [92] mov eax, -1
	movl	$-1,%eax
# [93] lock xadd dword ptr [target], eax
	lock
	xaddl	%eax,(%rcx)
# [94] dec eax
	decl	%eax
#  CPU ATHLON64
# [95] end;
	leaq	(%rbp),%rsp
	popq	%rbp
	ret
.seh_endproc
.Lc714:

.section .text.n_system_$$_atomicdecrement$int64$$int64,"x"
	.balign 16,0x90
.globl	SYSTEM_$$_ATOMICDECREMENT$INT64$$INT64
SYSTEM_$$_ATOMICDECREMENT$INT64$$INT64:
.Lc718:
.seh_proc SYSTEM_$$_ATOMICDECREMENT$INT64$$INT64
# [98] asm
	pushq	%rbp
.seh_pushreg %rbp
.Lc720:
.Lc721:
	movq	%rsp,%rbp
.Lc722:
	leaq	-16(%rsp),%rsp
.seh_stackalloc 16
.seh_endprologue
# Var $result located at rbp-8, size=OS_S64
#  CPU ATHLON64
# [99] mov rax, -1
	movq	$-1,%rax
# [100] lock xadd qword ptr [target], rax
	lock
	xaddq	%rax,(%rcx)
# [101] dec rax
	decq	%rax
#  CPU ATHLON64
# [102] end;
	leaq	(%rbp),%rsp
	popq	%rbp
	ret
.seh_endproc
.Lc719:

.section .text.n__fpc_leave,"x"
	.balign 16,0x90
.globl	_fpc_leave
_fpc_leave:
.globl	_FPC_leave
_FPC_leave:
.Lc845:
# [system.pas]
# [332] asm
#  CPU ATHLON64
# [333] movl   4(%esp),%eax
	movl	4(%esp),%eax
# [334] movl   %eax,%fs:(0)
	movl	%eax,%fs:0
# [335] movl   %ebp,%eax
	movl	%ebp,%eax
# [336] call   16(%esp)
	call	*16(%esp)
#  CPU ATHLON64
# [337] end;
	ret
.Lc846:

.section .text.n_fpc_setjmp,"x"
	.balign 16,0x90
.globl	fpc_setjmp
fpc_setjmp:
.globl	FPC_SETJMP
FPC_SETJMP:
.Lc871:
# [504] asm
#  CPU ATHLON64
# [505] movq     %rbx,jmp_buf.rbx(%rcx)
	movq	%rbx,(%rcx)
# [506] movq     %rbp,jmp_buf.rbp(%rcx)
	movq	%rbp,8(%rcx)
# [507] movq     %r12,jmp_buf.r12(%rcx)
	movq	%r12,16(%rcx)
# [508] movq     %r13,jmp_buf.r13(%rcx)
	movq	%r13,24(%rcx)
# [509] movq     %r14,jmp_buf.r14(%rcx)
	movq	%r14,32(%rcx)
# [510] movq     %r15,jmp_buf.r15(%rcx)
	movq	%r15,40(%rcx)
# [511] movq     %rsi,jmp_buf.rsi(%rcx)
	movq	%rsi,64(%rcx)
# [512] movq     %rdi,jmp_buf.rdi(%rcx)
	movq	%rdi,72(%rcx)
# [513] leaq     8(%rsp),%rax
	leaq	8(%rsp),%rax
# [514] movq     %rax,jmp_buf.rsp(%rcx)
	movq	%rax,48(%rcx)
# [515] movq     (%rsp),%rax
	movq	(%rsp),%rax
# [516] movq     %rax,jmp_buf.rip(%rcx)
	movq	%rax,56(%rcx)
# [517] movdqu   %xmm6,jmp_buf.xmm6(%rcx)
	movdqu	%xmm6,80(%rcx)
# [518] movdqu   %xmm7,jmp_buf.xmm7(%rcx)
	movdqu	%xmm7,96(%rcx)
# [519] movdqu   %xmm8,jmp_buf.xmm8(%rcx)
	movdqu	%xmm8,112(%rcx)
# [520] movdqu   %xmm9,jmp_buf.xmm9(%rcx)
	movdqu	%xmm9,128(%rcx)
# [521] movdqu   %xmm10,jmp_buf.xmm10(%rcx)
	movdqu	%xmm10,144(%rcx)
# [522] movdqu   %xmm11,jmp_buf.xmm11(%rcx)
	movdqu	%xmm11,160(%rcx)
# [523] movdqu   %xmm12,jmp_buf.xmm12(%rcx)
	movdqu	%xmm12,176(%rcx)
# [524] movdqu   %xmm13,jmp_buf.xmm13(%rcx)
	movdqu	%xmm13,192(%rcx)
# [525] movdqu   %xmm14,jmp_buf.xmm14(%rcx)
	movdqu	%xmm14,208(%rcx)
# [526] movdqu   %xmm15,jmp_buf.xmm15(%rcx)
	movdqu	%xmm15,224(%rcx)
# [527] stmxcsr  jmp_buf.mxcsr(%rcx)
	stmxcsr	240(%rcx)
# [528] fnstcw   jmp_buf.fpucw(%rcx)
	fnstcw	244(%rcx)
# [529] xorl     %eax,%eax
	xorl	%eax,%eax
#  CPU ATHLON64
# [530] end;
	ret
.Lc872:

.section .text.n_fpc_longjmp,"x"
	.balign 16,0x90
.globl	fpc_longjmp
fpc_longjmp:
.globl	FPC_LONGJMP
FPC_LONGJMP:
.Lc873:
# [534] asm
#  CPU ATHLON64
# [550] cmpl     $1,%edx
	cmpl	$1,%edx
# [551] adcl     $0,%edx
	adcl	$0,%edx
# [552] movl     %edx,%eax
	movl	%edx,%eax
# [553] movq     jmp_buf.rbx(%rcx),%rbx
	movq	(%rcx),%rbx
# [554] movq     jmp_buf.rbp(%rcx),%rbp
	movq	8(%rcx),%rbp
# [555] movq     jmp_buf.r12(%rcx),%r12
	movq	16(%rcx),%r12
# [556] movq     jmp_buf.r13(%rcx),%r13
	movq	24(%rcx),%r13
# [557] movq     jmp_buf.r14(%rcx),%r14
	movq	32(%rcx),%r14
# [558] movq     jmp_buf.r15(%rcx),%r15
	movq	40(%rcx),%r15
# [559] movq     jmp_buf.rsi(%rcx),%rsi
	movq	64(%rcx),%rsi
# [560] movq     jmp_buf.rdi(%rcx),%rdi
	movq	72(%rcx),%rdi
# [561] movq     jmp_buf.rsp(%rcx),%rsp
	movq	48(%rcx),%rsp
# [562] movdqu   jmp_buf.xmm6(%rcx),%xmm6
	movdqu	80(%rcx),%xmm6
# [563] movdqu   jmp_buf.xmm7(%rcx),%xmm7
	movdqu	96(%rcx),%xmm7
# [564] movdqu   jmp_buf.xmm8(%rcx),%xmm8
	movdqu	112(%rcx),%xmm8
# [565] movdqu   jmp_buf.xmm9(%rcx),%xmm9
	movdqu	128(%rcx),%xmm9
# [566] movdqu   jmp_buf.xmm10(%rcx),%xmm10
	movdqu	144(%rcx),%xmm10
# [567] movdqu   jmp_buf.xmm11(%rcx),%xmm11
	movdqu	160(%rcx),%xmm11
# [568] movdqu   jmp_buf.xmm12(%rcx),%xmm12
	movdqu	176(%rcx),%xmm12
# [569] movdqu   jmp_buf.xmm13(%rcx),%xmm13
	movdqu	192(%rcx),%xmm13
# [570] movdqu   jmp_buf.xmm14(%rcx),%xmm14
	movdqu	208(%rcx),%xmm14
# [571] movdqu   jmp_buf.xmm15(%rcx),%xmm15
	movdqu	224(%rcx),%xmm15
# [572] ldmxcsr  jmp_buf.mxcsr(%rcx)
	ldmxcsr	240(%rcx)
# [573] fnclex
	fnclex
# [574] fldcw    jmp_buf.fpucw(%rcx)
	fldcw	244(%rcx)
# [575] jmpq     jmp_buf.rip(%rcx)
	jmp	*56(%rcx)
#  CPU ATHLON64
# [577] end;
	ret
.Lc874:

.section .text.n_system_$$_interlockeddecrement$longint$$longint,"x"
	.balign 16,0x90
SYSTEM_$$_INTERLOCKEDDECREMENT$LONGINT$$LONGINT:
.Lc904:
.seh_proc SYSTEM_$$_INTERLOCKEDDECREMENT$LONGINT$$LONGINT
# [721] asm
	pushq	%rbp
.seh_pushreg %rbp
.Lc906:
.Lc907:
	movq	%rsp,%rbp
.Lc908:
	leaq	-16(%rsp),%rsp
.seh_stackalloc 16
.seh_endprologue
# Var $result located at rbp-4, size=OS_S32
#  CPU ATHLON64
# [723] mov rax, -1
	movq	$-1,%rax
# [724] lock xadd [Addend], rax
	lock
	xaddq	%rax,(%rcx)
# [725] dec rax
	decq	%rax
#  CPU ATHLON64
# [731] end;
	leaq	(%rbp),%rsp
	popq	%rbp
	ret
.seh_endproc
.Lc905:

.section .text.n_system_$$_interlockedincrement$longint$$longint,"x"
	.balign 16,0x90
SYSTEM_$$_INTERLOCKEDINCREMENT$LONGINT$$LONGINT:
.Lc909:
.seh_proc SYSTEM_$$_INTERLOCKEDINCREMENT$LONGINT$$LONGINT
# [735] asm
	pushq	%rbp
.seh_pushreg %rbp
.Lc911:
.Lc912:
	movq	%rsp,%rbp
.Lc913:
	leaq	-16(%rsp),%rsp
.seh_stackalloc 16
.seh_endprologue
# Var $result located at rbp-4, size=OS_S32
#  CPU ATHLON64
# [737] mov rax, 1
	movq	$1,%rax
# [738] lock xadd [Addend], rax
	lock
	xaddq	%rax,(%rcx)
# [739] inc rax
	incq	%rax
#  CPU ATHLON64
# [745] end;
	leaq	(%rbp),%rsp
	popq	%rbp
	ret
.seh_endproc
.Lc910:
# End asmlist al_pure_assembler
# Begin asmlist al_procedures

.section .text.n_system_$$_wait_for_enter,"x"
	.balign 16,0x90
SYSTEM_$$_WAIT_FOR_ENTER:
.Lc1:
.seh_proc SYSTEM_$$_WAIT_FOR_ENTER
# [208] begin
	pushq	%rbx
.seh_pushreg %rbx
	leaq	-48(%rsp),%rsp
.Lc3:
.seh_stackalloc 48
.seh_endprologue
# Var c located at rsp+40, size=OS_8
# Var d located at rsp+44, size=OS_32
# [209] writeln('press <enter>...');
	call	fpc_get_output
	movq	%rax,%rbx
	leaq	_$SYSTEM$_Ld1(%rip),%r8
	movq	%rbx,%rdx
	xorl	%ecx,%ecx
	call	fpc_write_text_shortstr
	movq	%rbx,%rcx
	call	fpc_writeln_end
	.balign 8,0x90
.Lj5:
# [212] ReadConsoleA(StdIn, @c, 1, @d, nil);
	movq	$0,32(%rsp)
	leaq	44(%rsp),%r9
	leaq	40(%rsp),%rdx
	movq	U_$SYSTEM_$$_STDIN(%rip),%rcx
	movl	$1,%r8d
	call	_$dll$kernel32$ReadConsoleA
# [213] if c = #13 then break;
	cmpb	$13,40(%rsp)
	jne	.Lj5
	jmp	.Lj7
	.balign 4,0x90
# [211] while true do begin
	jmp	.Lj5
.Lj7:
# [215] end;
	nop
	leaq	48(%rsp),%rsp
	popq	%rbx
	ret
.seh_endproc
.Lc2:

.section .text.n_system_$$_lo$longint$$byte,"x"
	.balign 16,0x90
.globl	SYSTEM_$$_LO$LONGINT$$BYTE
SYSTEM_$$_LO$LONGINT$$BYTE:
.Lc4:
# Var $result located in register al
# [218] function Lo(i: Integer): Byte; overload; begin Result := Byte(i and $FF  ); end;
	movl	%ecx,%eax
# Var i located in register eax
	andl	$255,%eax
# Var $result located in register al
	ret
.Lc5:

.section .text.n_system_$$_lo$word$$byte,"x"
	.balign 16,0x90
.globl	SYSTEM_$$_LO$WORD$$BYTE
SYSTEM_$$_LO$WORD$$BYTE:
.Lc6:
# Var $result located in register al
# [219] function Lo(w: Word   ): Byte; overload; begin Result := Byte(w and $FF  ); end;
	movw	%cx,%ax
# Var w located in register ax
# Var $result located in register al
	andl	$255,%eax
	ret
.Lc7:

.section .text.n_system_$$_lo$longint$$word,"x"
	.balign 16,0x90
.globl	SYSTEM_$$_LO$LONGINT$$WORD
SYSTEM_$$_LO$LONGINT$$WORD:
.Lc8:
# Var $result located in register ax
# [220] function Lo(l: Longint): Word; overload; begin Result := Word(l and $FFFF); end;
	movl	%ecx,%eax
# Var l located in register eax
	andl	$65535,%eax
# Var $result located in register ax
	ret
.Lc9:

.section .text.n_system_$$_lo$longword$$word,"x"
	.balign 16,0x90
.globl	SYSTEM_$$_LO$LONGWORD$$WORD
SYSTEM_$$_LO$LONGWORD$$WORD:
.Lc10:
# Var $result located in register ax
# [221] function Lo(l: DWord  ): Word; overload; begin Result := Word(l and $FFFF); end;
	movl	%ecx,%eax
# Var l located in register eax
	andl	$65535,%eax
# Var $result located in register ax
	ret
.Lc11:

.section .text.n_system_$$_lo$int64$$longword,"x"
	.balign 16,0x90
.globl	SYSTEM_$$_LO$INT64$$LONGWORD
SYSTEM_$$_LO$INT64$$LONGWORD:
.Lc12:
# Var $result located in register eax
# [223] function Lo(i: Int64): DWord; overload; begin Result := DWord(i and $FFFFFFFF); end;
	movq	%rcx,%rax
# Var i located in register rax
# Var $result located in register eax
	ret
.Lc13:

.section .text.n_system_$$_lo$qword$$longword,"x"
	.balign 16,0x90
.globl	SYSTEM_$$_LO$QWORD$$LONGWORD
SYSTEM_$$_LO$QWORD$$LONGWORD:
.Lc14:
# Var $result located in register eax
# [224] function Lo(q: QWord): DWord; overload; begin Result := DWord(q and $FFFFFFFF); end;
	movq	%rcx,%rax
# Var q located in register rax
# Var $result located in register eax
	ret
.Lc15:

.section .text.n_system_$$_hi$longint$$byte,"x"
	.balign 16,0x90
.globl	SYSTEM_$$_HI$LONGINT$$BYTE
SYSTEM_$$_HI$LONGINT$$BYTE:
.Lc16:
# Var $result located in register al
# [226] function Hi(i: Integer): Byte ; overload; begin Result := Byte((i shr 8) and $FF); end;
	movl	%ecx,%eax
# Var i located in register eax
	shrl	$8,%eax
	andl	$255,%eax
# Var $result located in register al
	ret
.Lc17:

.section .text.n_system_$$_hi$word$$byte,"x"
	.balign 16,0x90
.globl	SYSTEM_$$_HI$WORD$$BYTE
SYSTEM_$$_HI$WORD$$BYTE:
.Lc18:
# Var $result located in register al
# [227] function Hi(w: Word   ): Byte ; overload; begin Result := Byte((w shr 8) and $FF); end;
	movzwl	%cx,%eax
# Var w located in register ax
	shrl	$8,%eax
	andl	$255,%eax
# Var $result located in register al
	ret
.Lc19:

.section .text.n_system_$$_hi$longword$$word,"x"
	.balign 16,0x90
.globl	SYSTEM_$$_HI$LONGWORD$$WORD
SYSTEM_$$_HI$LONGWORD$$WORD:
.Lc20:
# Var $result located in register ax
# [229] function Hi(l: DWord  ): Word ; overload; begin Result := Word ((l shr 16) and $FFFF    ); end;
	movl	%ecx,%eax
# Var l located in register eax
	shrl	$16,%eax
	andl	$65535,%eax
# Var $result located in register ax
	ret
.Lc21:

.section .text.n_system_$$_hi$int64$$longword,"x"
	.balign 16,0x90
.globl	SYSTEM_$$_HI$INT64$$LONGWORD
SYSTEM_$$_HI$INT64$$LONGWORD:
.Lc22:
# Var $result located in register eax
# [230] function Hi(i: Int64  ): DWord; overload; begin Result := DWord((i shr 32) and $FFFFFFFF); end;
	movq	%rcx,%rax
# Var i located in register rax
	shrq	$32,%rax
# Var $result located in register eax
	ret
.Lc23:

.section .text.n_system_$$_hi$qword$$longword,"x"
	.balign 16,0x90
.globl	SYSTEM_$$_HI$QWORD$$LONGWORD
SYSTEM_$$_HI$QWORD$$LONGWORD:
.Lc24:
# Var $result located in register eax
# [231] function Hi(q: QWord  ): DWord; overload; begin Result := DWord((q shr 32) and $FFFFFFFF); end;
	movq	%rcx,%rax
# Var q located in register rax
	shrq	$32,%rax
# Var $result located in register eax
	ret
.Lc25:

.section .text.n_system$_$tinterfaceentry_$__$$_getiid$$pguid,"x"
	.balign 16,0x90
.globl	SYSTEM$_$TINTERFACEENTRY_$__$$_GETIID$$PGUID
SYSTEM$_$TINTERFACEENTRY_$__$$_GETIID$$PGUID:
.Lc26:
# Var $result located in register rax
# Var $self located in register rcx
# [objects.inc]
# [226] begin
# [230] if Assigned(IIDRef) then GetIID := IIDRef^
	cmpq	$0,(%rcx)
	je	.Lj35
	movq	(%rcx),%rax
	movq	(%rax),%rax
	ret
.Lj35:
# [232] GetIID := nil;
	xorl	%eax,%eax
# [234] end;
	ret
.Lc27:

.section .text.n_system$_$tinterfaceentry_$__$$_getiidstr$$pshortstring,"x"
	.balign 16,0x90
.globl	SYSTEM$_$TINTERFACEENTRY_$__$$_GETIIDSTR$$PSHORTSTRING
SYSTEM$_$TINTERFACEENTRY_$__$$_GETIIDSTR$$PSHORTSTRING:
.Lc28:
# Var $result located in register rax
# Var $self located in register rcx
# [237] begin
# [241] if Assigned(IIDStrRef) then GetIIDStr := IIDStrRef^
	cmpq	$0,40(%rcx)
	je	.Lj40
	movq	40(%rcx),%rax
	movq	(%rax),%rax
	ret
.Lj40:
# [243] GetIIDStr := nil;
	xorl	%eax,%eax
# [245] end;
	ret
.Lc29:

.section .text.n_system$_$tvmt_$__$$_getvparent$$pvmt,"x"
	.balign 16,0x90
.globl	SYSTEM$_$TVMT_$__$$_GETVPARENT$$PVMT
SYSTEM$_$TVMT_$__$$_GETVPARENT$$PVMT:
.Lc30:
# Var $result located in register rax
# Var $self located in register rcx
# [252] begin
# [253] if vParentRef <> nil then result := vParentRef^ else result := nil;
	cmpq	$0,16(%rcx)
	je	.Lj45
	movq	16(%rcx),%rax
	movq	(%rax),%rax
	ret
.Lj45:
	xorl	%eax,%eax
# [254] end;
	ret
.Lc31:

.section .text.n_system$_$tobject_$__$$_create$$tobject,"x"
	.balign 16,0x90
.globl	SYSTEM$_$TOBJECT_$__$$_CREATE$$TOBJECT
SYSTEM$_$TOBJECT_$__$$_CREATE$$TOBJECT:
.Lc32:
.seh_proc SYSTEM$_$TOBJECT_$__$$_CREATE$$TOBJECT
# [261] begin
	pushq	%rbp
.seh_pushreg %rbp
.Lc34:
.Lc35:
	movq	%rsp,%rbp
.Lc36:
	leaq	-64(%rsp),%rsp
.seh_stackalloc 64
.seh_endprologue
# Var $vmt located at rbp-8, size=OS_64
# Var $self located at rbp-16, size=OS_64
# Var $vmt_afterconstruction_local located at rbp-24, size=OS_S64
	movq	%rcx,-16(%rbp)
	movq	%rdx,-8(%rbp)
	cmpq	$1,%rdx
	jne	.Lj50
	movq	-16(%rbp),%rax
	movq	-16(%rbp),%rdx
	movq	%rax,%rcx
	call	*104(%rdx)
	movq	%rax,-16(%rbp)
	.balign 4,0x90
.Lj50:
	cmpq	$0,-16(%rbp)
	je	.Lj47
	.balign 4,0x90
.Lj58:
	nop
.Lj57:
	movq	$-1,-24(%rbp)
# [262] end;
	movq	$1,-24(%rbp)
	cmpq	$0,-16(%rbp)
	je	.Lj55
	cmpq	$0,-8(%rbp)
	je	.Lj55
	movq	-16(%rbp),%rcx
	movq	-16(%rbp),%rax
	movq	(%rax),%rax
	call	*128(%rax)
	.balign 4,0x90
	jmp	.Lj55
.Lj54:
	cmpq	$0,-8(%rbp)
	je	.Lj64
	movq	-24(%rbp),%rdx
	movq	-16(%rbp),%rcx
	movq	-16(%rbp),%rax
	movq	(%rax),%rax
	call	*96(%rax)
	.balign 4,0x90
.Lj64:
	call	fpc_reraise
	call	FPC_DONEEXCEPTION
.Lj65:
	nop
.Lj55:
.Lj47:
	movq	-16(%rbp),%rax
	nop
	leaq	(%rbp),%rsp
	popq	%rbp
	ret
.seh_handler __FPC_specific_handler,@except,@unwind
.seh_handlerdata
	.long	1
	.long	1
	.rva	.Lj57
	.rva	.Lj54
	.rva	.Lj55

.section .text.n_system$_$tobject_$__$$_create$$tobject,"x"
.seh_endproc
.Lc33:

.section .text.n_system$_$tobject_$__$$_destroy,"x"
	.balign 16,0x90
.globl	SYSTEM$_$TOBJECT_$__$$_DESTROY
SYSTEM$_$TOBJECT_$__$$_DESTROY:
.Lc37:
.seh_proc SYSTEM$_$TOBJECT_$__$$_DESTROY
# [265] begin
	pushq	%rbx
.seh_pushreg %rbx
	pushq	%rsi
.seh_pushreg %rsi
	leaq	-40(%rsp),%rsp
.Lc39:
.seh_stackalloc 40
.seh_endprologue
	movq	%rcx,%rbx
# Var $self located in register rbx
	movq	%rdx,%rsi
# Var $vmt located in register rsi
	testq	%rsi,%rsi
	jng	.Lj69
	movq	%rbx,%rcx
	movq	(%rbx),%rax
	call	*136(%rax)
	.balign 4,0x90
.Lj69:
# [267] end;
	testq	%rbx,%rbx
	je	.Lj71
	testq	%rsi,%rsi
	je	.Lj71
	movq	%rbx,%rcx
	movq	(%rbx),%rax
	call	*112(%rax)
	.balign 4,0x90
.Lj71:
	nop
	leaq	40(%rsp),%rsp
	popq	%rsi
	popq	%rbx
	ret
.seh_endproc
.Lc38:

.section .text.n_system$_$tobject_$__$$_newinstance$$tobject,"x"
	.balign 16,0x90
.globl	SYSTEM$_$TOBJECT_$__$$_NEWINSTANCE$$TOBJECT
SYSTEM$_$TOBJECT_$__$$_NEWINSTANCE$$TOBJECT:
.Lc40:
.seh_proc SYSTEM$_$TOBJECT_$__$$_NEWINSTANCE$$TOBJECT
# [272] begin
	pushq	%rbx
.seh_pushreg %rbx
	leaq	-48(%rsp),%rsp
.Lc42:
.seh_stackalloc 48
.seh_endprologue
# Var $result located in register rax
# Var p located at rsp+32, size=OS_64
	movq	%rcx,%rbx
# Var $self located in register rbx
# Var $self located in register rbx
# [273] GetMem(p, InstanceSize);
	call	SYSTEM$_$TOBJECT_$__$$_INSTANCESIZE$$INT64
	movq	%rax,%rdx
	leaq	32(%rsp),%rcx
	call	SYSTEM_$$_GETMEM$POINTER$QWORD$$POINTER
# [275] if p <> nil then InitInstance(p);
	cmpq	$0,32(%rsp)
	je	.Lj76
	movq	32(%rsp),%rdx
	movq	%rbx,%rcx
	call	SYSTEM$_$TOBJECT_$__$$_INITINSTANCE$POINTER$$TOBJECT
	.balign 4,0x90
.Lj76:
# Var $result located in register rax
# [276] result := TObject(p);
	movq	32(%rsp),%rax
# [277] end;
	nop
	leaq	48(%rsp),%rsp
	popq	%rbx
	ret
.seh_endproc
.Lc41:

.section .text.n_system$_$tobject_$__$$_freeinstance,"x"
	.balign 16,0x90
.globl	SYSTEM$_$TOBJECT_$__$$_FREEINSTANCE
SYSTEM$_$TOBJECT_$__$$_FREEINSTANCE:
.Lc43:
.seh_proc SYSTEM$_$TOBJECT_$__$$_FREEINSTANCE
# [280] begin
	leaq	-40(%rsp),%rsp
.Lc45:
.seh_stackalloc 40
.seh_endprologue
# Var $self located in register rax
# Var $self located in register rcx
# [281] FreeMem(Pointer(Self));
	call	SYSTEM_$$_FREEMEM$POINTER$$QWORD
# [282] end;
	nop
	leaq	40(%rsp),%rsp
	ret
.seh_endproc
.Lc44:

.section .text.n_system$_$tobject_$__$$_safecallexception$tobject$pointer$$hresult,"x"
	.balign 16,0x90
.globl	SYSTEM$_$TOBJECT_$__$$_SAFECALLEXCEPTION$TOBJECT$POINTER$$HRESULT
SYSTEM$_$TOBJECT_$__$$_SAFECALLEXCEPTION$TOBJECT$POINTER$$HRESULT:
.Lc46:
# Var $result located in register eax
# Var $self located in register rcx
# Var exceptobject located in register rdx
# Var exceptaddr located in register r8
# [285] begin
# Var $result located in register eax
# [286] result := 1;
	movl	$1,%eax
# [287] end;
	ret
.Lc47:

.section .text.n_system$_$tobject_$__$$_free,"x"
	.balign 16,0x90
.globl	SYSTEM$_$TOBJECT_$__$$_FREE
SYSTEM$_$TOBJECT_$__$$_FREE:
.Lc48:
.seh_proc SYSTEM$_$TOBJECT_$__$$_FREE
# [290] begin
	leaq	-40(%rsp),%rsp
.Lc50:
.seh_stackalloc 40
.seh_endprologue
	movq	%rcx,%rax
# Var $self located in register rax
# [292] if self <> nil then self.Destroy;
	testq	%rcx,%rcx
	je	.Lj84
	movq	%rax,%rcx
	movl	$1,%edx
	movq	(%rax),%rax
	call	*96(%rax)
	.balign 4,0x90
.Lj84:
# [293] end;
	nop
	leaq	40(%rsp),%rsp
	ret
.seh_endproc
.Lc49:

.section .text.n_system_$$_initinterfacepointers$tclass$pointer,"x"
	.balign 16,0x90
.globl	SYSTEM_$$_INITINTERFACEPOINTERS$TCLASS$POINTER
SYSTEM_$$_INITINTERFACEPOINTERS$TCLASS$POINTER:
.Lc51:
# Var ovmt located in register rax
# Var i located in register r10d
# Var intftable located in register r11
# Var Res located in register rax
# Var objclass located in register rcx
# Var instance located in register rdx
# [302] begin
# Var ovmt located in register rcx
# Var objclass located in register rcx
# [304] while assigned(ovmt) and {$ifdef VER3_0}(ovmt^.vIntfTable <> @emptyintf){$else}assigned(ovmt^.vIntfTable){$endif} do
	jmp	.Lj88
	.balign 8,0x90
.Lj87:
# [306] intftable:=ovmt^.vIntfTable;
	movq	80(%rcx),%r11
# [311] i:=intftable^.EntryCount;
	movl	(%r11),%r10d
# [312] Res:=@intftable^.Entries[0];
	leaq	8(%r11),%rax
# [313] while i>0 do begin
	jmp	.Lj91
	.balign 8,0x90
.Lj90:
# [314] if Res^.IType = etStandard then
	cmpl	$0,48(%rax)
	jne	.Lj94
	movq	%rax,%r8
# [315] ppointer(@(pbyte(instance)[Res^.IOffset]))^:=
	movq	32(%r8),%r9
	addq	%rdx,%r9
	movq	8(%r8),%r8
	movq	%r8,(%r9)
	.balign 4,0x90
.Lj94:
# [317] inc(Res);
	addq	$56,%rax
# [318] dec(i);
	subl	$1,%r10d
.Lj91:
	testl	%r10d,%r10d
	jg	.Lj90
# [321] ovmt:=ovmt^.vParent;
	cmpq	$0,16(%rcx)
	je	.Lj96
	movq	16(%rcx),%r8
	movq	(%r8),%r8
	jmp	.Lj97
.Lj96:
	xorq	%r8,%r8
.Lj97:
	movq	%r8,%rcx
.Lj88:
	testq	%rcx,%rcx
	je	.Lj89
	cmpq	$0,80(%rcx)
	jne	.Lj87
.Lj89:
# [323] end;
	ret
.Lc52:

.section .text.n_system$_$tobject_$__$$_initinstance$pointer$$tobject,"x"
	.balign 16,0x90
.globl	SYSTEM$_$TOBJECT_$__$$_INITINSTANCE$POINTER$$TOBJECT
SYSTEM$_$TOBJECT_$__$$_INITINSTANCE$POINTER$$TOBJECT:
.Lc53:
.seh_proc SYSTEM$_$TOBJECT_$__$$_INITINSTANCE$POINTER$$TOBJECT
# [332] begin
	pushq	%rbx
.seh_pushreg %rbx
	pushq	%rsi
.seh_pushreg %rsi
	leaq	-40(%rsp),%rsp
.Lc55:
.seh_stackalloc 40
.seh_endprologue
# Var $result located in register rax
# Var vmt located in register rax
	movq	%rcx,%rbx
# Var $self located in register rbx
	movq	%rdx,%rsi
# Var Instance located in register rsi
# Var $self located in register rbx
# [333] FillChar(Instance^, InstanceSize, 0);
	movq	%rbx,%rcx
	call	SYSTEM$_$TOBJECT_$__$$_INSTANCESIZE$$INT64
	movq	%rax,%rdx
# Var Instance located in register rsi
	movq	%rsi,%rcx
	xorl	%r8d,%r8d
	call	SYSTEM_$$_FILLCHAR$formal$QWORD$BYTE
# Var Instance located in register rsi
# [334] PPointer(Instance)^ := Pointer(self);
	movq	%rbx,%rcx
# Var $self located in register rcx
	movq	%rcx,(%rsi)
# [336] if PVmt(self)^.vIntfTable <> nil then
	cmpq	$0,80(%rcx)
	je	.Lj104
# [337] InitInterfacePointers(self, Instance);
	movq	%rsi,%rdx
	call	SYSTEM_$$_INITINTERFACEPOINTERS$TCLASS$POINTER
	.balign 4,0x90
.Lj104:
# Var $result located in register rax
# [346] result := TObject(Instance);
	movq	%rsi,%rax
# Var Instance located in register rax
# [347] end;
	nop
	leaq	40(%rsp),%rsp
	popq	%rsi
	popq	%rbx
	ret
.seh_endproc
.Lc54:

.section .text.n_system$_$tobject_$__$$_classtype$$tclass,"x"
	.balign 16,0x90
.globl	SYSTEM$_$TOBJECT_$__$$_CLASSTYPE$$TCLASS
SYSTEM$_$TOBJECT_$__$$_CLASSTYPE$$TCLASS:
.Lc56:
# Var $result located in register rax
# [350] begin
	movq	%rcx,%rax
# Var $self located in register rax
# Var $result located in register rax
# Var $self located in register rax
# [352] end;
	ret
.Lc57:

.section .text.n_system$_$tobject_$__$$_classinfo$$pointer,"x"
	.balign 16,0x90
.globl	SYSTEM$_$TOBJECT_$__$$_CLASSINFO$$POINTER
SYSTEM$_$TOBJECT_$__$$_CLASSINFO$$POINTER:
.Lc58:
# Var $result located in register rax
# Var $self located in register rcx
# [355] begin
# Var $self located in register rcx
# Var $result located in register rax
# [356] result := PVmt(Self)^.vTypeInfo;
	movq	56(%rcx),%rax
# [357] end;
	ret
.Lc59:

.section .text.n_system$_$tobject_$__$$_classname$$shortstring,"x"
	.balign 16,0x90
.globl	SYSTEM$_$TOBJECT_$__$$_CLASSNAME$$SHORTSTRING
SYSTEM$_$TOBJECT_$__$$_CLASSNAME$$SHORTSTRING:
.Lc60:
.seh_proc SYSTEM$_$TOBJECT_$__$$_CLASSNAME$$SHORTSTRING
# [360] begin
	leaq	-40(%rsp),%rsp
.Lc62:
.seh_stackalloc 40
.seh_endprologue
	movq	%rcx,%rax
# Var $self located in register rax
	movq	%rdx,%rcx
# Var $result located in register rcx
# Var $self located in register rax
# [361] result := PVmt(Self)^.vClassName^;
	movq	24(%rax),%rdx
	call	fpc_shortstr_to_shortstr
# [362] end;
	nop
	leaq	40(%rsp),%rsp
	ret
.seh_endproc
.Lc61:

.section .text.n_system$_$tobject_$__$$_classparent$$tclass,"x"
	.balign 16,0x90
.globl	SYSTEM$_$TOBJECT_$__$$_CLASSPARENT$$TCLASS
SYSTEM$_$TOBJECT_$__$$_CLASSPARENT$$TCLASS:
.Lc63:
# Var $result located in register rax
# Var $self located in register rcx
# [365] begin
# [366] result := TClass(PVmt(Self)^.vParent);
	cmpq	$0,16(%rcx)
	je	.Lj114
	movq	16(%rcx),%rax
	movq	(%rax),%rax
	ret
.Lj114:
	xorl	%eax,%eax
# Var $result located in register rax
# [367] end;
	ret
.Lc64:

.section .text.n_system$_$tobject_$__$$_instancesize$$int64,"x"
	.balign 16,0x90
.globl	SYSTEM$_$TOBJECT_$__$$_INSTANCESIZE$$INT64
SYSTEM$_$TOBJECT_$__$$_INSTANCESIZE$$INT64:
.Lc65:
# Var $result located in register rax
# Var $self located in register rcx
# [370] begin
# Var $self located in register rcx
# Var $result located in register rax
# [371] result := PVmt(Self)^.vInstanceSize;
	movq	(%rcx),%rax
# [372] end;
	ret
.Lc66:

.section .text.n_system$_$tobject_$__$$_inheritsfrom$tclass$$boolean,"x"
	.balign 16,0x90
.globl	SYSTEM$_$TOBJECT_$__$$_INHERITSFROM$TCLASS$$BOOLEAN
SYSTEM$_$TOBJECT_$__$$_INHERITSFROM$TCLASS$$BOOLEAN:
.Lc67:
# Var $result located in register al
# Var vmt located in register rax
# Var $self located in register rcx
# Var aclass located in register rdx
# [377] begin
# [378] if aclass = nil then exit(false);
	testq	%rdx,%rdx
	jne	.Lj123
	xorb	%al,%al
	ret
	.balign 4,0x90
# Var vmt located in register rcx
# Var $self located in register rcx
# [380] while (vmt <> nil) and (vmt <> PVmt(aclass)) do vmt := vmt^.vParent;
	jmp	.Lj123
	.balign 8,0x90
.Lj122:
	cmpq	$0,16(%rcx)
	je	.Lj126
	movq	16(%rcx),%r8
	movq	(%r8),%r8
	jmp	.Lj127
.Lj126:
	xorq	%r8,%r8
.Lj127:
	movq	%r8,%rcx
.Lj123:
	testq	%rcx,%rcx
	je	.Lj124
	cmpq	%rcx,%rdx
	jne	.Lj122
.Lj124:
# [381] result := vmt = PVmt(aclass);
	cmpq	%rcx,%rdx
	seteb	%al
# [382] end;
	ret
.Lc68:

.section .text.n_system$_$tobject_$__$$_afterconstruction,"x"
	.balign 16,0x90
.globl	SYSTEM$_$TOBJECT_$__$$_AFTERCONSTRUCTION
SYSTEM$_$TOBJECT_$__$$_AFTERCONSTRUCTION:
.Lc69:
# [385] begin
	movq	%rcx,%rax
# Var $self located in register rax
# [386] end;
	ret
.Lc70:

.section .text.n_system$_$tobject_$__$$_beforedestruction,"x"
	.balign 16,0x90
.globl	SYSTEM$_$TOBJECT_$__$$_BEFOREDESTRUCTION
SYSTEM$_$TOBJECT_$__$$_BEFOREDESTRUCTION:
.Lc71:
# [389] begin
	movq	%rcx,%rax
# Var $self located in register rax
# [390] end;
	ret
.Lc72:

.section .text.n_system_$$_isguidequal$tguid$tguid$$boolean,"x"
	.balign 16,0x90
.globl	SYSTEM_$$_ISGUIDEQUAL$TGUID$TGUID$$BOOLEAN
SYSTEM_$$_ISGUIDEQUAL$TGUID$TGUID$$BOOLEAN:
.Lc73:
# Var $result located in register al
# Var guid1 located in register rcx
# Var guid2 located in register rdx
# [395] begin
# [397] (guid1.D1=guid2.D1) and
	movl	(%rcx),%eax
	cmpl	(%rdx),%eax
	jne	.Lj138
# [398] (PDWORD(@guid1.D2)^=PDWORD(@guid2.D2)^) and
	leaq	4(%rcx),%rax
	leaq	4(%rdx),%r8
	movl	(%rax),%eax
	cmpl	(%r8),%eax
	jne	.Lj138
	leaq	8(%rcx),%rax
# [399] (PDWORD(@guid1.D4[0])^=PDWORD(@guid2.D4[0])^) and
	movq	%rax,%rcx
	addq	$8,%rdx
	movq	%rdx,%r8
	movl	(%rcx),%ecx
	cmpl	(%r8),%ecx
	jne	.Lj138
# [400] (PDWORD(@guid1.D4[4])^=PDWORD(@guid2.D4[4])^);
	addq	$4,%rax
	addq	$4,%rdx
	movl	(%rax),%eax
	cmpl	(%rdx),%eax
	jne	.Lj138
# Var $result located in register al
# [396] result:=
	movb	$1,%al
	ret
.Lj138:
	xorb	%al,%al
# [402] end;
	ret
.Lc74:

.section .text.n_system_$$_getinterfacebyentry$pointer$pinterfaceentry$formal$$boolean,"x"
	.balign 16,0x90
.globl	SYSTEM_$$_GETINTERFACEBYENTRY$POINTER$PINTERFACEENTRY$formal$$BOOLEAN
SYSTEM_$$_GETINTERFACEBYENTRY$POINTER$PINTERFACEENTRY$formal$$BOOLEAN:
.Lc75:
.seh_proc SYSTEM_$$_GETINTERFACEBYENTRY$POINTER$PINTERFACEENTRY$formal$$BOOLEAN
# [413] begin
	pushq	%rbx
.seh_pushreg %rbx
	pushq	%rdi
.seh_pushreg %rdi
	pushq	%rsi
.seh_pushreg %rsi
	leaq	-48(%rsp),%rsp
.Lc77:
.seh_stackalloc 48
.seh_endprologue
# Var $result located in register al
# Var Getter located at rsp+32, size=OS_128
	movq	%rcx,%rbx
# Var Instance located in register rbx
	movq	%rdx,%rsi
# Var IEntry located in register rsi
	movq	%r8,%rdi
# Var obj located in register rdi
# [414] Pointer(Obj) := nil;
	movq	$0,(%rdi)
# Var Instance located in register rbx
# [415] Getter.Data := Instance;
	movq	%rbx,40(%rsp)
# [416] if Assigned(IEntry) and Assigned(Instance) then case IEntry^.IType of
	testq	%rsi,%rsi
	je	.Lj146
	testq	%rbx,%rbx
	je	.Lj146
	movl	48(%rsi),%eax
	testl	%eax,%eax
	je	.Lj150
	subl	$1,%eax
	je	.Lj152
	subl	$1,%eax
	je	.Lj154
	subl	$1,%eax
	je	.Lj151
	subl	$1,%eax
	je	.Lj153
	subl	$1,%eax
	je	.Lj155
	subl	$1,%eax
	je	.Lj151
	jmp	.Lj149
	.balign 4,0x90
.Lj150:
# [418] Pointer(Obj) := pbyte(instance) + IEntry^.IOffset;
	movq	32(%rsi),%rax
	addq	%rbx,%rax
	movq	%rax,(%rdi)
	jmp	.Lj148
	.balign 4,0x90
.Lj151:
# [420] Pointer(obj) := PPointer(pbyte(Instance) + IEntry^.IOffset)^;
	movq	32(%rsi),%rax
	addq	%rbx,%rax
	movq	(%rax),%rax
	movq	%rax,(%rdi)
	jmp	.Lj148
	.balign 4,0x90
.Lj152:
# [423] Getter.code := PCodePointer(pbyte(PPointer(Instance)^) + IEntry^.IOffset)^;
	movq	32(%rsi),%rax
	movq	(%rbx),%rdx
	addq	%rdx,%rax
	movq	(%rax),%rax
	movq	%rax,32(%rsp)
# [424] TInterfaceGetter(Getter)(obj);
	movq	%rdi,%rdx
	movq	40(%rsp),%rcx
	call	*32(%rsp)
	jmp	.Lj148
	.balign 4,0x90
.Lj153:
# [428] Getter.code := PCodePointer(pbyte(PPointer(Instance)^) + IEntry^.IOffset)^;
	movq	32(%rsi),%rdx
	movq	(%rbx),%rax
	addq	%rdx,%rax
	movq	(%rax),%rax
	movq	%rax,32(%rsp)
# [429] TObject(obj) := TClassGetter(Getter)();
	movq	40(%rsp),%rcx
	call	*32(%rsp)
	movq	%rax,(%rdi)
	jmp	.Lj148
	.balign 4,0x90
.Lj154:
# [433] Getter.code := IEntry^.IOffsetAsCodePtr;
	movq	32(%rsi),%rax
	movq	%rax,32(%rsp)
# [434] TInterfaceGetter(Getter)(obj);
	movq	%rdi,%rdx
	movq	40(%rsp),%rcx
	call	*32(%rsp)
	jmp	.Lj148
	.balign 4,0x90
.Lj155:
# [438] Getter.code := IEntry^.IOffsetAsCodePtr;
	movq	32(%rsi),%rax
	movq	%rax,32(%rsp)
# [439] TObject(obj) := TClassGetter(Getter)();
	movq	40(%rsp),%rcx
	call	*32(%rsp)
	movq	%rax,(%rdi)
	.balign 4,0x90
.Lj149:
	.balign 4,0x90
.Lj148:
	.balign 4,0x90
.Lj146:
# [442] result := assigned(pointer(obj));
	cmpq	$0,(%rdi)
# Var $result located in register al
	setneb	%al
# [443] end;
	nop
	leaq	48(%rsp),%rsp
	popq	%rsi
	popq	%rdi
	popq	%rbx
	ret
.seh_endproc
.Lc76:

.section .text.n_system_$$_getinterface_$tobject$tguid$formal$$boolean,"x"
	.balign 16,0x90
.globl	SYSTEM_$$_GETINTERFACE_$TOBJECT$TGUID$formal$$BOOLEAN
SYSTEM_$$_GETINTERFACE_$TOBJECT$TGUID$formal$$BOOLEAN:
.Lc78:
.seh_proc SYSTEM_$$_GETINTERFACE_$TOBJECT$TGUID$formal$$BOOLEAN
# [454] begin
	pushq	%rbx
.seh_pushreg %rbx
	pushq	%rdi
.seh_pushreg %rdi
	pushq	%rsi
.seh_pushreg %rsi
	pushq	%r12
.seh_pushreg %r12
	pushq	%r13
.seh_pushreg %r13
	leaq	-32(%rsp),%rsp
.Lc80:
.seh_stackalloc 32
.seh_endprologue
# Var $result located in register r12b
# Var IEntry located in register r13
# Var Instance located in register rax
	movq	%rcx,%rbx
# Var objclass located in register rbx
	movq	%rdx,%rsi
# Var iid located in register rsi
	movq	%r8,%rdi
# Var obj located in register rdi
# [455] if IsGUIDEqual(IObjectInstance, iid) then begin
	movq	%rsi,%rdx
	leaq	TC_$SYSTEM_$$_IOBJECTINSTANCE(%rip),%rcx
	call	SYSTEM_$$_ISGUIDEQUAL$TGUID$TGUID$$BOOLEAN
	testb	%al,%al
	je	.Lj159
# [456] TObject(Obj) := objclass;
	movq	%rbx,(%rdi)
# [457] Result := true;
	movb	$1,%r12b
# [458] Exit;
	jmp	.Lj156
	.balign 4,0x90
.Lj159:
# Var Instance located in register rbx
# Var objclass located in register rbx
	.balign 8,0x90
.Lj160:
# [463] IEntry := Instance.GetInterfaceEntry(iid);
	movq	%rsi,%rdx
	movq	%rbx,%rcx
	call	SYSTEM$_$TOBJECT_$__$$_GETINTERFACEENTRY$TGUID$$PINTERFACEENTRY
	movq	%rax,%r13
# [464] result := GetInterfaceByEntry(Instance, IEntry, obj);
	movq	%rdi,%r8
	movq	%r13,%rdx
	movq	%rbx,%rcx
	call	SYSTEM_$$_GETINTERFACEBYENTRY$POINTER$PINTERFACEENTRY$formal$$BOOLEAN
	movb	%al,%r12b
# [466] if (not result) or
	testb	%al,%al
	je	.Lj162
# [467] (IEntry^.IType in [etStandard, etFieldValue,
	movl	48(%r13),%eax
	cmpl	$4,%eax
	jc	.Lj162
	.balign 4,0x90
# [471] Instance := TObject(obj);
	movq	(%rdi),%rbx
# [472] until false;
	jmp	.Lj160
.Lj162:
# [475] if result and (IEntry^.IType in [etStandard, etFieldValue]) then IInterface(obj)._AddRef;
	testb	%r12b,%r12b
	je	.Lj168
	movl	48(%r13),%eax
	testl	%eax,%eax
	je	.Lj169
	cmpl	$3,%eax
	je	.Lj169
	jne	.Lj168
.Lj169:
	movq	(%rdi),%rcx
	movq	(%rdi),%rax
	movq	(%rax),%rax
	call	*8(%rax)
	.balign 4,0x90
.Lj168:
.Lj156:
# [476] end;
	movb	%r12b,%al
	nop
	leaq	32(%rsp),%rsp
	popq	%r13
	popq	%r12
	popq	%rsi
	popq	%rdi
	popq	%rbx
	ret
.seh_endproc
.Lc79:

.section .text.n_system$_$tobject_$__$$_getinterface$tguid$formal$$boolean,"x"
	.balign 16,0x90
.globl	SYSTEM$_$TOBJECT_$__$$_GETINTERFACE$TGUID$formal$$BOOLEAN
SYSTEM$_$TOBJECT_$__$$_GETINTERFACE$TGUID$formal$$BOOLEAN:
.Lc81:
.seh_proc SYSTEM$_$TOBJECT_$__$$_GETINTERFACE$TGUID$formal$$BOOLEAN
# [478] begin
	leaq	-40(%rsp),%rsp
.Lc83:
.seh_stackalloc 40
.seh_endprologue
# Var $result located in register al
# Var $self located in register rcx
# Var iid located in register rdx
# Var obj located in register r8
# Var $self located in register rcx
# [479] Exit(GetInterface_(self, iid, obj));
	call	SYSTEM_$$_GETINTERFACE_$TOBJECT$TGUID$formal$$BOOLEAN
# Var $result located in register al
# [480] end;
	nop
	leaq	40(%rsp),%rsp
	ret
.seh_endproc
.Lc82:

.section .text.n_system_$$_getinterfaceweak_$tobject$tguid$formal$$boolean,"x"
	.balign 16,0x90
.globl	SYSTEM_$$_GETINTERFACEWEAK_$TOBJECT$TGUID$formal$$BOOLEAN
SYSTEM_$$_GETINTERFACEWEAK_$TOBJECT$TGUID$formal$$BOOLEAN:
.Lc84:
.seh_proc SYSTEM_$$_GETINTERFACEWEAK_$TOBJECT$TGUID$formal$$BOOLEAN
# [495] begin
	pushq	%rbx
.seh_pushreg %rbx
	pushq	%rdi
.seh_pushreg %rdi
	pushq	%rsi
.seh_pushreg %rsi
	pushq	%r12
.seh_pushreg %r12
	pushq	%r13
.seh_pushreg %r13
	leaq	-32(%rsp),%rsp
.Lc86:
.seh_stackalloc 32
.seh_endprologue
# Var $result located in register r12b
# Var IEntry located in register r13
# Var Instance located in register rax
	movq	%rcx,%rbx
# Var objclass located in register rbx
	movq	%rdx,%rsi
# Var iid located in register rsi
	movq	%r8,%rdi
# Var obj located in register rdi
# [496] if IsGUIDEqual(IObjectInstance, iid) then begin
	movq	%rsi,%rdx
	leaq	TC_$SYSTEM_$$_IOBJECTINSTANCE(%rip),%rcx
	call	SYSTEM_$$_ISGUIDEQUAL$TGUID$TGUID$$BOOLEAN
	testb	%al,%al
	je	.Lj176
# [497] TObject(Obj) := objclass;
	movq	%rbx,(%rdi)
# [498] Result := true;
	movb	$1,%r12b
# [499] Exit;
	jmp	.Lj173
	.balign 4,0x90
.Lj176:
# Var Instance located in register rbx
# Var objclass located in register rbx
	.balign 8,0x90
.Lj177:
# [504] IEntry := Instance.GetInterfaceEntry(iid);
	movq	%rsi,%rdx
	movq	%rbx,%rcx
	call	SYSTEM$_$TOBJECT_$__$$_GETINTERFACEENTRY$TGUID$$PINTERFACEENTRY
	movq	%rax,%r13
# [505] result := GetInterfaceByEntry(Instance, IEntry, obj);
	movq	%rdi,%r8
	movq	%r13,%rdx
	movq	%rbx,%rcx
	call	SYSTEM_$$_GETINTERFACEBYENTRY$POINTER$PINTERFACEENTRY$formal$$BOOLEAN
	movb	%al,%r12b
# [507] if (not result) or
	testb	%al,%al
	je	.Lj179
# [508] (IEntry^.IType in [etStandard, etFieldValue,
	movl	48(%r13),%eax
	cmpl	$4,%eax
	jc	.Lj179
	.balign 4,0x90
# [512] Instance := TObject(obj);
	movq	(%rdi),%rbx
# [513] until false;
	jmp	.Lj177
.Lj179:
# [516] if result and not (IEntry^.IType in [etStandard, etFieldValue]) then IInterface(obj)._Release;
	testb	%r12b,%r12b
	je	.Lj185
	movl	48(%r13),%eax
	testl	%eax,%eax
	je	.Lj185
	cmpl	$3,%eax
	je	.Lj185
	je	.Lj185
	movq	(%rdi),%rcx
	movq	(%rdi),%rax
	movq	(%rax),%rax
	call	*16(%rax)
	.balign 4,0x90
.Lj185:
.Lj173:
# [517] end;
	movb	%r12b,%al
	nop
	leaq	32(%rsp),%rsp
	popq	%r13
	popq	%r12
	popq	%rsi
	popq	%rdi
	popq	%rbx
	ret
.seh_endproc
.Lc85:

.section .text.n_system$_$tobject_$__$$_getinterfaceweak$tguid$formal$$boolean,"x"
	.balign 16,0x90
.globl	SYSTEM$_$TOBJECT_$__$$_GETINTERFACEWEAK$TGUID$formal$$BOOLEAN
SYSTEM$_$TOBJECT_$__$$_GETINTERFACEWEAK$TGUID$formal$$BOOLEAN:
.Lc87:
.seh_proc SYSTEM$_$TOBJECT_$__$$_GETINTERFACEWEAK$TGUID$formal$$BOOLEAN
# [519] begin
	leaq	-40(%rsp),%rsp
.Lc89:
.seh_stackalloc 40
.seh_endprologue
# Var $result located in register al
# Var $self located in register rcx
# Var iid located in register rdx
# Var obj located in register r8
# Var $self located in register rcx
# [520] Exit(GetInterfaceWeak_(self, iid, obj));
	call	SYSTEM_$$_GETINTERFACEWEAK_$TOBJECT$TGUID$formal$$BOOLEAN
# Var $result located in register al
# [521] end;
	nop
	leaq	40(%rsp),%rsp
	ret
.seh_endproc
.Lc88:

.section .text.n_system_$$_getinterfaceentry_$tobject$tguid$$pinterfaceentry,"x"
	.balign 16,0x90
.globl	SYSTEM_$$_GETINTERFACEENTRY_$TOBJECT$TGUID$$PINTERFACEENTRY
SYSTEM_$$_GETINTERFACEENTRY_$TOBJECT$TGUID$$PINTERFACEENTRY:
.Lc90:
.seh_proc SYSTEM_$$_GETINTERFACEENTRY_$TOBJECT$TGUID$$PINTERFACEENTRY
# [537] begin
	pushq	%rbx
.seh_pushreg %rbx
	pushq	%rdi
.seh_pushreg %rdi
	pushq	%rsi
.seh_pushreg %rsi
	pushq	%r12
.seh_pushreg %r12
	pushq	%r13
.seh_pushreg %r13
	pushq	%r14
.seh_pushreg %r14
	leaq	-40(%rsp),%rsp
.Lc92:
.seh_stackalloc 40
.seh_endprologue
# Var $result located in register r12
# Var i located in register edi
# Var intftable located in register r14
# Var ovmt located in register rax
	movq	%rcx,%rbx
# Var objclass located in register rbx
	movq	%rdx,%rsi
# Var iid located in register rsi
# Var ovmt located in register rbx
# Var objclass located in register rbx
# [539] while Assigned(ovmt) and Assigned(ovmt^.vIntftable) do begin
	jmp	.Lj193
	.balign 8,0x90
.Lj192:
# [540] intftable := ovmt^.vIntfTable;
	movq	80(%rbx),%r14
# [541] for i := 0 to intftable^.EntryCount-1 do begin
	movq	(%r14),%rax
	leaq	-1(%rax),%r13
	testl	%r13d,%r13d
	jnge	.Lj196
	movl	$-1,%edi
	.balign 8,0x90
.Lj197:
	addl	$1,%edi
# [542] result := @intftable^.Entries[i];
	movl	%edi,%eax
	imulq	$56,%rax,%rax
	leaq	8(%r14,%rax),%r12
# [543] if assigned(Result^.iid) and IsGUIDEqual(Result^.iid^, iid) then Exit;
	cmpq	$0,16(%r12)
	je	.Lj201
	movq	16(%r12),%rcx
	movq	%rsi,%rdx
	call	SYSTEM_$$_ISGUIDEQUAL$TGUID$TGUID$$BOOLEAN
	testb	%al,%al
	jne	.Lj190
	.balign 4,0x90
.Lj201:
	cmpl	%edi,%r13d
	jnle	.Lj197
	.balign 4,0x90
.Lj196:
# [545] ovmt := ovmt^.vParent;
	cmpq	$0,16(%rbx)
	je	.Lj204
	movq	16(%rbx),%rax
	movq	(%rax),%rax
	jmp	.Lj205
.Lj204:
	xorl	%eax,%eax
.Lj205:
	movq	%rax,%rbx
.Lj193:
	testq	%rbx,%rbx
	je	.Lj194
	cmpq	$0,80(%rbx)
	jne	.Lj192
.Lj194:
# [547] result := nil;
	xorq	%r12,%r12
.Lj190:
# [548] end;
	movq	%r12,%rax
	nop
	leaq	40(%rsp),%rsp
	popq	%r14
	popq	%r13
	popq	%r12
	popq	%rsi
	popq	%rdi
	popq	%rbx
	ret
.seh_endproc
.Lc91:

.section .text.n_system$_$tobject_$__$$_getinterfaceentry$tguid$$pinterfaceentry,"x"
	.balign 16,0x90
.globl	SYSTEM$_$TOBJECT_$__$$_GETINTERFACEENTRY$TGUID$$PINTERFACEENTRY
SYSTEM$_$TOBJECT_$__$$_GETINTERFACEENTRY$TGUID$$PINTERFACEENTRY:
.Lc93:
.seh_proc SYSTEM$_$TOBJECT_$__$$_GETINTERFACEENTRY$TGUID$$PINTERFACEENTRY
# [550] begin
	leaq	-40(%rsp),%rsp
.Lc95:
.seh_stackalloc 40
.seh_endprologue
# Var $result located in register rax
# Var $self located in register rcx
# Var iid located in register rdx
# Var $self located in register rcx
# [551] Exit(GetInterfaceEntry_(self, iid));
	call	SYSTEM_$$_GETINTERFACEENTRY_$TOBJECT$TGUID$$PINTERFACEENTRY
# Var $result located in register rax
# [552] end;
	nop
	leaq	40(%rsp),%rsp
	ret
.seh_endproc
.Lc94:

.section .text.n_system$_$tinterfacedobject_$__$$_queryinterface$tguid$formal$$longint,"x"
	.balign 16,0x90
.globl	SYSTEM$_$TINTERFACEDOBJECT_$__$$_QUERYINTERFACE$TGUID$formal$$LONGINT
SYSTEM$_$TINTERFACEDOBJECT_$__$$_QUERYINTERFACE$TGUID$formal$$LONGINT:
.Lc96:
.seh_proc SYSTEM$_$TINTERFACEDOBJECT_$__$$_QUERYINTERFACE$TGUID$formal$$LONGINT
# [568] begin
	leaq	-40(%rsp),%rsp
.Lc98:
.seh_stackalloc 40
.seh_endprologue
# Var $result located in register eax
# Var $self located in register rcx
# Var iid located in register rdx
# Var obj located in register r8
# [569] if GetInterface(iid, obj) then result := S_OK else result := LongInt(E_NOINTERFACE);
	call	SYSTEM$_$TOBJECT_$__$$_GETINTERFACE$TGUID$formal$$BOOLEAN
	testb	%al,%al
	je	.Lj214
	xorl	%eax,%eax
	jmp	.Lj215
.Lj214:
	movl	$-2147467262,%eax
.Lj215:
# [570] end;
	nop
	leaq	40(%rsp),%rsp
	ret
.seh_endproc
.Lc97:

.section .text.n_system$_$tinterfacedobject_$__$$__addref$$longint,"x"
	.balign 16,0x90
.globl	SYSTEM$_$TINTERFACEDOBJECT_$__$$__ADDREF$$LONGINT
SYSTEM$_$TINTERFACEDOBJECT_$__$$__ADDREF$$LONGINT:
.Lc99:
# Var $result located in register eax
# Var $self located in register rcx
# [573] begin
# [575] inc(FRefCount);
	addl	$1,8(%rcx)
# Var $result located in register eax
# [576] result := FRefCount;
	movl	8(%rcx),%eax
# [577] end;
	ret
.Lc100:

.section .text.n_system$_$tinterfacedobject_$__release$$longint_$$_fin$0000022c,"x"
	.balign 16,0x90
SYSTEM$_$TINTERFACEDOBJECT_$__RELEASE$$LONGINT_$$_fin$0000022C:
.Lc101:
.seh_proc SYSTEM$_$TINTERFACEDOBJECT_$__RELEASE$$LONGINT_$$_fin$0000022C
# [597] end;
	pushq	%rbp
.seh_pushreg %rbp
.Lc103:
.Lc104:
	movq	%rcx,%rbp
.Lc105:
	leaq	-32(%rsp),%rsp
.seh_stackalloc 32
.seh_endprologue
# [580] begin
	leaq	-8(%rbp),%rcx
	call	fpc_ansistr_decr_ref
	nop
	leaq	32(%rsp),%rsp
	popq	%rbp
	ret
.seh_endproc
.Lc102:

.section .text.n_system$_$tinterfacedobject_$__$$__release$$longint,"x"
	.balign 16,0x90
.globl	SYSTEM$_$TINTERFACEDOBJECT_$__$$__RELEASE$$LONGINT
SYSTEM$_$TINTERFACEDOBJECT_$__$$__RELEASE$$LONGINT:
.Lc106:
# Temps allocated between rbp-536 and rbp+0
.seh_proc SYSTEM$_$TINTERFACEDOBJECT_$__$$__RELEASE$$LONGINT
	pushq	%rbp
.seh_pushreg %rbp
.Lc108:
.Lc109:
	movq	%rsp,%rbp
.Lc110:
	leaq	-576(%rsp),%rsp
.seh_stackalloc 576
	movq	%rbx,-536(%rbp)
	movq	%rsi,-528(%rbp)
.seh_savereg %rbx, 40
.seh_savereg %rsi, 48
.seh_endprologue
# Var $result located in register esi
	movq	%rcx,%rbx
# Var $self located in register rbx
	movq	$0,-8(%rbp)
.Lj226:
	nop
.Lj222:
# [582] dec(FRefCount);
	subl	$1,8(%rbx)
# [583] result := FRefCount;
	movl	8(%rbx),%esi
# [584] if result = 0 then begin
	testl	%esi,%esi
	jne	.Lj228
# [586] inc(FDestroyCount);
	addl	$1,12(%rbx)
# [587] if FDestroyCount = 1 then begin
	cmpl	$1,12(%rbx)
	jne	.Lj230
# [588] if copy(ClassName, 1, 9) = '$Capturer' then begin
	movq	(%rbx),%rcx
	leaq	-520(%rbp),%rdx
	call	SYSTEM$_$TOBJECT_$__$$_CLASSNAME$$SHORTSTRING
	leaq	-520(%rbp),%rdx
	movl	$9,%r9d
	movl	$1,%r8d
	leaq	-264(%rbp),%rcx
	call	fpc_shortstr_copy
	leaq	-264(%rbp),%rdx
	xorl	%r8d,%r8d
	leaq	-8(%rbp),%rcx
	call	fpc_shortstr_to_ansistr
	movq	-8(%rbp),%rcx
	leaq	.Ld2(%rip),%rdx
	call	fpc_ansistr_compare_equal
	testq	%rax,%rax
	je	.Lj224
	.balign 4,0x90
# [594] self.Destroy;
	movq	%rbx,%rcx
	movl	$1,%edx
	movq	(%rbx),%rax
	call	*96(%rax)
	.balign 4,0x90
.Lj230:
	.balign 4,0x90
.Lj228:
.Lj224:
	nop
.Lj223:
	movq	%rbp,%rcx
	call	SYSTEM$_$TINTERFACEDOBJECT_$__RELEASE$$LONGINT_$$_fin$0000022C
	movl	%esi,%eax
	movq	-536(%rbp),%rbx
	movq	-528(%rbp),%rsi
	leaq	(%rbp),%rsp
	popq	%rbp
	ret
.seh_handler __FPC_specific_handler,@unwind
.seh_handlerdata
	.long	1
	.long	0
	.rva	.Lj222
	.rva	.Lj223
	.rva	SYSTEM$_$TINTERFACEDOBJECT_$__RELEASE$$LONGINT_$$_fin$0000022C

.section .text.n_system$_$tinterfacedobject_$__$$__release$$longint,"x"
.seh_endproc
.Lc107:

.section .text.n_system$_$tinterfacedobject_$__$$_destroy,"x"
	.balign 16,0x90
.globl	SYSTEM$_$TINTERFACEDOBJECT_$__$$_DESTROY
SYSTEM$_$TINTERFACEDOBJECT_$__$$_DESTROY:
.Lc111:
.seh_proc SYSTEM$_$TINTERFACEDOBJECT_$__$$_DESTROY
# [600] begin
	pushq	%rbx
.seh_pushreg %rbx
	pushq	%rsi
.seh_pushreg %rsi
	leaq	-40(%rsp),%rsp
.Lc113:
.seh_stackalloc 40
.seh_endprologue
	movq	%rcx,%rbx
# Var $self located in register rbx
	movq	%rdx,%rsi
# Var $vmt located in register rsi
	testq	%rsi,%rsi
	jng	.Lj236
	movq	%rbx,%rcx
	movq	(%rbx),%rax
	call	*136(%rax)
	.balign 4,0x90
.Lj236:
# [601] FRefCount := 0;
	movl	$0,8(%rbx)
# [602] FDestroyCount := 0;
	movl	$0,12(%rbx)
# Var $self located in register rbx
# [603] inherited Destroy;
	movq	%rbx,%rcx
	xorl	%edx,%edx
	call	SYSTEM$_$TOBJECT_$__$$_DESTROY
# [604] end;
	testq	%rbx,%rbx
	je	.Lj238
	testq	%rsi,%rsi
	je	.Lj238
	movq	%rbx,%rcx
	movq	(%rbx),%rax
	call	*112(%rax)
	.balign 4,0x90
.Lj238:
	nop
	leaq	40(%rsp),%rsp
	popq	%rsi
	popq	%rbx
	ret
.seh_endproc
.Lc112:

.section .text.n_system$_$tinterfacedobject_$__$$_afterconstruction,"x"
	.balign 16,0x90
.globl	SYSTEM$_$TINTERFACEDOBJECT_$__$$_AFTERCONSTRUCTION
SYSTEM$_$TINTERFACEDOBJECT_$__$$_AFTERCONSTRUCTION:
.Lc114:
# [607] begin
	movq	%rcx,%rax
# Var $self located in register rax
# [610] dec(FRefCount);
	subl	$1,8(%rax)
# [611] end;
	ret
.Lc115:

.section .text.n_system$_$tinterfacedobject_$__$$_beforedestruction,"x"
	.balign 16,0x90
.globl	SYSTEM$_$TINTERFACEDOBJECT_$__$$_BEFOREDESTRUCTION
SYSTEM$_$TINTERFACEDOBJECT_$__$$_BEFOREDESTRUCTION:
.Lc116:
.seh_proc SYSTEM$_$TINTERFACEDOBJECT_$__$$_BEFOREDESTRUCTION
# [614] begin
	leaq	-40(%rsp),%rsp
.Lc118:
.seh_stackalloc 40
.seh_endprologue
	movq	%rcx,%rax
# Var $self located in register rax
# [615] if FRefCount <> 0 then HandleError(204);
	cmpl	$0,8(%rax)
	je	.Lj245
	movl	$204,%ecx
	call	FPC_HANDLEERROR
	.balign 4,0x90
.Lj245:
# [616] end;
	nop
	leaq	40(%rsp),%rsp
	ret
.seh_endproc
.Lc117:

.section .text.n_system$_$tinterfacedobject_$__$$_newinstance$$tobject,"x"
	.balign 16,0x90
.globl	SYSTEM$_$TINTERFACEDOBJECT_$__$$_NEWINSTANCE$$TOBJECT
SYSTEM$_$TINTERFACEDOBJECT_$__$$_NEWINSTANCE$$TOBJECT:
.Lc119:
.seh_proc SYSTEM$_$TINTERFACEDOBJECT_$__$$_NEWINSTANCE$$TOBJECT
# [619] begin
	leaq	-40(%rsp),%rsp
.Lc121:
.seh_stackalloc 40
.seh_endprologue
# Var $result located in register rax
# Var $self located in register rcx
# Var $self located in register rcx
# [620] result := inherited NewInstance;
	call	SYSTEM$_$TOBJECT_$__$$_NEWINSTANCE$$TOBJECT
# Var $result located in register rax
# [621] if result <> nil then TInterfacedObject(result).FRefCount := 1;
	testq	%rax,%rax
	je	.Lj249
	movl	$1,8(%rax)
	.balign 4,0x90
.Lj249:
# [622] end;
	nop
	leaq	40(%rsp),%rsp
	ret
.seh_endproc
.Lc120:

.section .text.n_system$_$tmethod_$__$$_$equal$tmethod$tmethod$$boolean,"x"
	.balign 16,0x90
.globl	SYSTEM$_$TMETHOD_$__$$_$equal$TMETHOD$TMETHOD$$BOOLEAN
SYSTEM$_$TMETHOD_$__$$_$equal$TMETHOD$TMETHOD$$BOOLEAN:
.Lc122:
# Var $result located in register al
# Var aLeft located in register rcx
# Var aRight located in register rdx
# [629] begin
# [630] result := (aLeft.Data = aRight.Data) and (aLeft.Code = aRight.Code);
	movq	8(%rcx),%rax
	cmpq	8(%rdx),%rax
	jne	.Lj253
	movq	(%rcx),%rax
	cmpq	(%rdx),%rax
	jne	.Lj253
# Var $result located in register al
	movb	$1,%al
	ret
.Lj253:
	xorb	%al,%al
# [631] end;
	ret
.Lc123:

.section .text.n_system$_$tmethod_$__$$_$not_equal$tmethod$tmethod$$boolean,"x"
	.balign 16,0x90
.globl	SYSTEM$_$TMETHOD_$__$$_$not_equal$TMETHOD$TMETHOD$$BOOLEAN
SYSTEM$_$TMETHOD_$__$$_$not_equal$TMETHOD$TMETHOD$$BOOLEAN:
.Lc124:
# Var $result located in register al
# Var aLeft located in register rcx
# Var aRight located in register rdx
# [634] begin
# [635] result := (aLeft.Data <> aRight.Data) or (aLeft.Code <> aRight.Code);
	movq	8(%rcx),%rax
	cmpq	8(%rdx),%rax
	jne	.Lj258
	movq	(%rcx),%rax
	cmpq	(%rdx),%rax
	je	.Lj260
# Var $result located in register al
.Lj258:
	movb	$1,%al
	ret
.Lj260:
	xorb	%al,%al
# [636] end;
	ret
.Lc125:

.section .text.n_system$_$tmethod_$__$$_$greater$tmethod$tmethod$$boolean,"x"
	.balign 16,0x90
.globl	SYSTEM$_$TMETHOD_$__$$_$greater$TMETHOD$TMETHOD$$BOOLEAN
SYSTEM$_$TMETHOD_$__$$_$greater$TMETHOD$TMETHOD$$BOOLEAN:
.Lc126:
# Var $result located in register al
# Var aLeft located in register rcx
# Var aRight located in register rdx
# [639] begin
	movq	8(%rcx),%r8
	movq	8(%rdx),%rax
# [640] result := (PtrUInt(aLeft.Data) > PtrUInt(aRight.Data)) or
	cmpq	%r8,%rax
	jb	.Lj264
# [641] ((aLeft.Data = aRight.Data) and (PtrUInt(aLeft.Code) > PtrUInt(aRight.Code)));
	cmpq	%r8,%rax
	jne	.Lj266
	movq	(%rcx),%rax
	cmpq	(%rdx),%rax
	jna	.Lj266
# Var $result located in register al
.Lj264:
	movb	$1,%al
	ret
.Lj266:
	xorb	%al,%al
# [642] end;
	ret
.Lc127:

.section .text.n_system$_$tmethod_$__$$_$greater_or_equal$tmethod$tmethod$$boolean,"x"
	.balign 16,0x90
.globl	SYSTEM$_$TMETHOD_$__$$_$greater_or_equal$TMETHOD$TMETHOD$$BOOLEAN
SYSTEM$_$TMETHOD_$__$$_$greater_or_equal$TMETHOD$TMETHOD$$BOOLEAN:
.Lc128:
# Var $result located in register al
# Var aLeft located in register rcx
# Var aRight located in register rdx
# [645] begin
	movq	8(%rcx),%rax
	movq	8(%rdx),%r8
# [646] result := (aLeft > aRight) or (aLeft = aRight);
	cmpq	%rax,%r8
	jb	.Lj273
	cmpq	%rax,%r8
	jne	.Lj275
	movq	(%rcx),%rax
	cmpq	(%rdx),%rax
	jna	.Lj275
.Lj273:
	movb	$1,%al
	jmp	.Lj279
.Lj275:
	xorb	%al,%al
.Lj279:
	testb	%al,%al
	jne	.Lj280
	movq	8(%rcx),%rax
	cmpq	8(%rdx),%rax
	jne	.Lj284
	movq	(%rcx),%rax
	cmpq	(%rdx),%rax
	jne	.Lj284
	movb	$1,%al
	jmp	.Lj286
.Lj284:
	xorb	%al,%al
.Lj286:
	testb	%al,%al
	je	.Lj282
# Var $result located in register al
.Lj280:
	movb	$1,%al
	ret
.Lj282:
	xorb	%al,%al
# [647] end;
	ret
.Lc129:

.section .text.n_system$_$tmethod_$__$$_$lower$tmethod$tmethod$$boolean,"x"
	.balign 16,0x90
.globl	SYSTEM$_$TMETHOD_$__$$_$lower$TMETHOD$TMETHOD$$BOOLEAN
SYSTEM$_$TMETHOD_$__$$_$lower$TMETHOD$TMETHOD$$BOOLEAN:
.Lc130:
# Var $result located in register al
# Var aLeft located in register rcx
# Var aRight located in register rdx
# [650] begin
	movq	8(%rcx),%r8
	movq	8(%rdx),%rax
# [651] Result := (PtrUInt(aLeft.Data) < PtrUInt(aRight.Data)) or
	cmpq	%r8,%rax
	ja	.Lj290
# [652] ((aLeft.Data = aRight.Data) and (PtrUInt(aLeft.Code) < PtrUInt(aRight.Code)));
	cmpq	%r8,%rax
	jne	.Lj292
	movq	(%rcx),%rax
	cmpq	(%rdx),%rax
	jnb	.Lj292
# Var $result located in register al
.Lj290:
	movb	$1,%al
	ret
.Lj292:
	xorb	%al,%al
# [653] end;
	ret
.Lc131:

.section .text.n_system$_$tmethod_$__$$_$lower_or_equal$tmethod$tmethod$$boolean,"x"
	.balign 16,0x90
.globl	SYSTEM$_$TMETHOD_$__$$_$lower_or_equal$TMETHOD$TMETHOD$$BOOLEAN
SYSTEM$_$TMETHOD_$__$$_$lower_or_equal$TMETHOD$TMETHOD$$BOOLEAN:
.Lc132:
# Var $result located in register al
# Var aLeft located in register rcx
# Var aRight located in register rdx
# [656] begin
	movq	8(%rcx),%rax
	movq	8(%rdx),%r8
# [657] result := (aLeft < aRight) or (aLeft = aRight);
	cmpq	%rax,%r8
	ja	.Lj299
	cmpq	%rax,%r8
	jne	.Lj301
	movq	(%rcx),%rax
	cmpq	(%rdx),%rax
	jnb	.Lj301
.Lj299:
	movb	$1,%al
	jmp	.Lj305
.Lj301:
	xorb	%al,%al
.Lj305:
	testb	%al,%al
	jne	.Lj306
	movq	8(%rcx),%rax
	cmpq	8(%rdx),%rax
	jne	.Lj310
	movq	(%rcx),%rax
	cmpq	(%rdx),%rax
	jne	.Lj310
	movb	$1,%al
	jmp	.Lj312
.Lj310:
	xorb	%al,%al
.Lj312:
	testb	%al,%al
	je	.Lj308
# Var $result located in register al
.Lj306:
	movb	$1,%al
	ret
.Lj308:
	xorb	%al,%al
# [658] end;
	ret
.Lc133:

.section .text.n_fpc_intf_assign,"x"
	.balign 16,0x90
.globl	fpc_intf_assign
fpc_intf_assign:
.globl	FPC_INTF_ASSIGN
FPC_INTF_ASSIGN:
.Lc134:
.seh_proc fpc_intf_assign
# [665] begin
	pushq	%rbx
.seh_pushreg %rbx
	pushq	%rsi
.seh_pushreg %rsi
	leaq	-40(%rsp),%rsp
.Lc136:
.seh_stackalloc 40
.seh_endprologue
	movq	%rcx,%rbx
# Var d located in register rbx
	movq	%rdx,%rsi
# Var s located in register rsi
# [666] if s <> nil then IUnknown(s)._AddRef;
	testq	%rdx,%rdx
	je	.Lj317
	movq	%rsi,%rcx
	movq	(%rsi),%rax
	call	*8(%rax)
	.balign 4,0x90
.Lj317:
# [667] if d <> nil then IUnknown(d)._Release;
	cmpq	$0,(%rbx)
	je	.Lj319
	movq	(%rbx),%rcx
	movq	(%rbx),%rax
	movq	(%rax),%rax
	call	*16(%rax)
	.balign 4,0x90
.Lj319:
# Var s located in register rsi
# [668] d := s;
	movq	%rsi,(%rbx)
# [669] end;
	nop
	leaq	40(%rsp),%rsp
	popq	%rsi
	popq	%rbx
	ret
.seh_endproc
.Lc135:

.section .text.n_system_$$_fpcclassasintf$pointer$tguid$$iunknown,"x"
	.balign 16,0x90
.globl	SYSTEM_$$_FPCCLASSASINTF$POINTER$TGUID$$IUNKNOWN
SYSTEM_$$_FPCCLASSASINTF$POINTER$TGUID$$IUNKNOWN:
.Lc137:
.seh_proc SYSTEM_$$_FPCCLASSASINTF$POINTER$TGUID$$IUNKNOWN
# [676] begin
	pushq	%rbx
.seh_pushreg %rbx
	pushq	%rdi
.seh_pushreg %rdi
	pushq	%rsi
.seh_pushreg %rsi
	leaq	-48(%rsp),%rsp
.Lc139:
.seh_stackalloc 48
.seh_endprologue
# Var tmpi located at rsp+32, size=OS_64
# Var tmpi2 located at rsp+40, size=OS_64
	movq	%rcx,%rbx
# Var $result located in register rbx
	movq	%rdx,%rsi
# Var s located in register rsi
	movq	%r8,%rdi
# Var iid located in register rdi
# [677] if s = nil then exit(nil);
	testq	%rsi,%rsi
	jne	.Lj323
	movq	%rbx,%rcx
	xorl	%edx,%edx
	call	fpc_intf_assign
	jmp	.Lj320
	.balign 4,0x90
.Lj323:
# [678] tmpi := nil;
	movq	$0,32(%rsp)
# [679] tmpi2 := nil;
	movq	$0,40(%rsp)
# [680] if not ((TObject(s).GetInterfaceWeak(IUnknown, tmpi2) and (IUnknown(tmpi2).QueryInterface(iid, tmpi) = S_OK)) or TObject(s).GetInterface(iid, tmpi)) then
	leaq	_$SYSTEM$_Ld3(%rip),%rdx
	leaq	40(%rsp),%r8
	movq	%rsi,%rcx
	call	SYSTEM$_$TOBJECT_$__$$_GETINTERFACEWEAK$TGUID$formal$$BOOLEAN
	testb	%al,%al
	je	.Lj325
	movq	%rdi,%rdx
	leaq	32(%rsp),%r8
	movq	40(%rsp),%rcx
	movq	40(%rsp),%rax
	movq	(%rax),%rax
	call	*(%rax)
	testl	%eax,%eax
	je	.Lj326
.Lj325:
	movq	%rdi,%rdx
	leaq	32(%rsp),%r8
	movq	%rsi,%rcx
	call	SYSTEM$_$TOBJECT_$__$$_GETINTERFACE$TGUID$formal$$BOOLEAN
	testb	%al,%al
	jne	.Lj326
# [681] HandleError(219);
	movl	$219,%ecx
	call	FPC_HANDLEERROR
	.balign 4,0x90
.Lj326:
# [682] result := nil;
	movq	%rbx,%rcx
	xorl	%edx,%edx
	call	fpc_intf_assign
# [683] pointer(result) := tmpi;
	movq	32(%rsp),%rax
	movq	%rax,(%rbx)
.Lj320:
# [684] end;
	nop
	leaq	48(%rsp),%rsp
	popq	%rsi
	popq	%rdi
	popq	%rbx
	ret
.seh_endproc
.Lc138:

.section .text.n_fpc_class_as_intf,"x"
	.balign 16,0x90
.globl	fpc_class_as_intf
fpc_class_as_intf:
.Lc140:
# [686] begin
	movq	%rcx,%rax
# Var $result located in register rax
# Var s located in register rdx
# Var iid located in register r8
# [687] end;
	ret
.Lc141:

.section .text.n_system_$$_fpcintfasclass$pointer$tclass$$pointer,"x"
	.balign 16,0x90
.globl	SYSTEM_$$_FPCINTFASCLASS$POINTER$TCLASS$$POINTER
SYSTEM_$$_FPCINTFASCLASS$POINTER$TCLASS$$POINTER:
.Lc142:
.seh_proc SYSTEM_$$_FPCINTFASCLASS$POINTER$TCLASS$$POINTER
# [701] begin
	pushq	%rbx
.seh_pushreg %rbx
	pushq	%rsi
.seh_pushreg %rsi
	leaq	-40(%rsp),%rsp
.Lc144:
.seh_stackalloc 40
.seh_endprologue
# Var $result located in register rsi
# Var tmpo located at rsp+32, size=OS_64
	movq	%rcx,%rax
# Var s located in register rax
	movq	%rdx,%rbx
# Var aclass located in register rbx
# [702] if s = nil then exit(nil);
	testq	%rax,%rax
	jne	.Lj333
	xorl	%esi,%esi
	jmp	.Lj330
	.balign 4,0x90
.Lj333:
# [703] if not ((IUnknown(s).QueryInterface(IObjectInstance, tmpo) = S_OK) and tmpo.InheritsFrom(aclass)) then
	leaq	32(%rsp),%r8
	leaq	TC_$SYSTEM_$$_IOBJECTINSTANCE(%rip),%rdx
	movq	%rax,%rcx
	movq	(%rax),%rax
	call	*(%rax)
	testl	%eax,%eax
	jne	.Lj335
	movq	32(%rsp),%rax
	movq	(%rax),%rcx
	movq	%rbx,%rdx
	call	SYSTEM$_$TOBJECT_$__$$_INHERITSFROM$TCLASS$$BOOLEAN
	testb	%al,%al
	jne	.Lj336
.Lj335:
# [704] HandleError(219);
	movl	$219,%ecx
	call	FPC_HANDLEERROR
	.balign 4,0x90
.Lj336:
# [705] result := tmpo;
	movq	32(%rsp),%rsi
.Lj330:
# [706] end;
	movq	%rsi,%rax
	nop
	leaq	40(%rsp),%rsp
	popq	%rsi
	popq	%rbx
	ret
.seh_endproc
.Lc143:

.section .text.n_fpc_intf_as_class,"x"
	.balign 16,0x90
.globl	fpc_intf_as_class
fpc_intf_as_class:
.globl	FPC_INTF_AS_CLASS
FPC_INTF_AS_CLASS:
.Lc145:
.seh_proc fpc_intf_as_class
# [708] begin
	leaq	-40(%rsp),%rsp
.Lc147:
.seh_stackalloc 40
.seh_endprologue
# Var $result located in register rax
# Var s located in register rcx
# Var aclass located in register rdx
# Var aclass located in register rdx
# Var s located in register rcx
# [709] Exit(fpcintfasclass(s, aclass));
	call	SYSTEM_$$_FPCINTFASCLASS$POINTER$TCLASS$$POINTER
# Var $result located in register rax
# [710] end;
	nop
	leaq	40(%rsp),%rsp
	ret
.seh_endproc
.Lc146:

.section .text.n_fpc_intf_cast,"x"
	.balign 16,0x90
.globl	fpc_intf_cast
fpc_intf_cast:
.globl	FPC_INTF_CAST
FPC_INTF_CAST:
.Lc148:
.seh_proc fpc_intf_cast
# [721] begin
	leaq	-40(%rsp),%rsp
.Lc150:
.seh_stackalloc 40
.seh_endprologue
	movq	%rcx,%rax
# Var $result located in register rax
# Var s located in register rdx
# Var iid located in register r8
# [722] msgdebug('@@todo: fpc_intf_cast');
	leaq	.Ld4(%rip),%rcx
	call	SYSTEM_$$_MSGDEBUG$ANSISTRING
# [723] end;
	nop
	leaq	40(%rsp),%rsp
	ret
.seh_endproc
.Lc149:

.section .text.n_system_$$_fpcintfdecrref$pointer,"x"
	.balign 16,0x90
.globl	SYSTEM_$$_FPCINTFDECRREF$POINTER
SYSTEM_$$_FPCINTFDECRREF$POINTER:
.Lc151:
.seh_proc SYSTEM_$$_FPCINTFDECRREF$POINTER
# [727] begin
	pushq	%rbx
.seh_pushreg %rbx
	leaq	-32(%rsp),%rsp
.Lc153:
.seh_stackalloc 32
.seh_endprologue
	movq	%rcx,%rbx
# Var i located in register rbx
# [728] if i <> nil then begin
	cmpq	$0,(%rbx)
	je	.Lj344
# [729] IUnknown(i)._Release;
	movq	(%rbx),%rcx
	movq	(%rbx),%rax
	movq	(%rax),%rax
	call	*16(%rax)
# [730] i := nil;
	movq	$0,(%rbx)
	.balign 4,0x90
.Lj344:
# [732] end;
	nop
	leaq	32(%rsp),%rsp
	popq	%rbx
	ret
.seh_endproc
.Lc152:

.section .text.n_fpc_intf_decr_ref,"x"
	.balign 16,0x90
.globl	fpc_intf_decr_ref
fpc_intf_decr_ref:
.globl	FPC_INTF_DECR_REF
FPC_INTF_DECR_REF:
.Lc154:
.seh_proc fpc_intf_decr_ref
# [734] begin
	leaq	-40(%rsp),%rsp
.Lc156:
.seh_stackalloc 40
.seh_endprologue
# Var i located in register rax
# [735] fpcintfdecrref(i);
	call	SYSTEM_$$_FPCINTFDECRREF$POINTER
# [736] end;
	nop
	leaq	40(%rsp),%rsp
	ret
.seh_endproc
.Lc155:

.section .text.n_fpc_intf_incr_ref,"x"
	.balign 16,0x90
.globl	fpc_intf_incr_ref
fpc_intf_incr_ref:
.globl	FPC_INTF_INCR_REF
FPC_INTF_INCR_REF:
.Lc157:
.seh_proc fpc_intf_incr_ref
# [749] begin
	leaq	-40(%rsp),%rsp
.Lc159:
.seh_stackalloc 40
.seh_endprologue
	movq	%rcx,%rax
# Var i located in register rax
# [750] if i <> nil then IUnknown(i)._AddRef;
	testq	%rcx,%rcx
	je	.Lj350
	movq	%rax,%rcx
	movq	(%rax),%rax
	call	*8(%rax)
	.balign 4,0x90
.Lj350:
# [751] end;
	nop
	leaq	40(%rsp),%rsp
	ret
.seh_endproc
.Lc158:

.section .text.n_system_$$_filterexception$exception_record$qword$longword$longint$$pointer,"x"
	.balign 16,0x90
SYSTEM_$$_FILTEREXCEPTION$EXCEPTION_RECORD$QWORD$LONGWORD$LONGINT$$POINTER:
.Lc160:
# Temps allocated between rsp+32 and rsp+40
.seh_proc SYSTEM_$$_FILTEREXCEPTION$EXCEPTION_RECORD$QWORD$LONGWORD$LONGINT$$POINTER
# [exceptions.inc]
# [166] begin
	pushq	%rbx
.seh_pushreg %rbx
	pushq	%rdi
.seh_pushreg %rdi
	pushq	%rsi
.seh_pushreg %rsi
	pushq	%r12
.seh_pushreg %r12
	pushq	%r13
.seh_pushreg %r13
	pushq	%r14
.seh_pushreg %r14
	pushq	%r15
.seh_pushreg %r15
	leaq	-48(%rsp),%rsp
.Lc162:
.seh_stackalloc 48
.seh_endprologue
# Var $result located in register rax
# Var exclass located in register r14
# Var i located in register esi
# Var filter located in register rax
# Var p located in register rdi
# Var curfilt located in register rbx
# Var rec located in register rcx
	movq	%rdx,%r15
# Var imagebase located in register r15
	movl	%r8d,%ebx
# Var filterRva located in register ebx
	movl	%r9d,%esi
# Var errcode located in register esi
# Var $result located in register rax
# [167] result := nil;
	movq	$0,32(%rsp)
# [169] if rec.ExceptionCode = FPC_EXCEPTION_CODE then
	cmpl	$3762704451,(%rcx)
	jne	.Lj354
# [170] TObject(rec.ExceptionInformation[1]).ClassType
	movq	40(%rcx),%rax
	movq	(%rax),%rcx
	call	SYSTEM$_$TOBJECT_$__$$_CLASSTYPE$$TCLASS
	jmp	.Lj355
.Lj354:
# [171] else if ExceptClsProc <> nil then begin
	cmpq	$0,TC_$SYSTEM_$$_EXCEPTCLSPROC(%rip)
	je	.Lj351
# [172] exclass := TClass(TExceptClsProc(ExceptClsProc)(errcode));
	movl	%esi,%ecx
	call	*TC_$SYSTEM_$$_EXCEPTCLSPROC(%rip)
	movq	%rax,%r14
.Lj355:
# [177] filter := pointer(imagebase+filterRva);
	andl	%ebx,%ebx
	leaq	(%rbx,%r15),%r13
# Var filter located in register rax
# Var filter located in register r13
# [178] for i := 0 to PLongint(filter)^-1 do begin
	movl	(%r13),%eax
	subl	$1,%eax
	movl	%eax,%r12d
	testl	%r12d,%r12d
	jnge	.Lj360
	movl	$-1,%esi
	.balign 8,0x90
.Lj361:
	addl	$1,%esi
# [179] curfilt := @PFilterRec(filter+sizeof(LongInt))[i];
	leaq	4(%r13),%rdx
	movslq	%esi,%rax
	leaq	(%rdx,%rax,8),%rbx
# [181] p := pointer(imagebase+curfilt^.RvaHandler);
	movl	4(%rbx),%eax
	leaq	(%rax,%r15),%rdi
# [183] if curfilt^.RvaClass = $FFFFFFFF then exit(p);
	cmpl	$4294967295,(%rbx)
	jne	.Lj365
	movq	%rdi,32(%rsp)
	jmp	.Lj351
	.balign 4,0x90
.Lj365:
# [186] if exclass.InheritsFrom(TClass(imagebase+curfilt^.RvaClass)) then exit(p);
	movl	(%rbx),%eax
	leaq	(%rax,%r15),%rdx
	movq	%r14,%rcx
	call	SYSTEM$_$TOBJECT_$__$$_INHERITSFROM$TCLASS$$BOOLEAN
	testb	%al,%al
	je	.Lj367
	movq	%rdi,32(%rsp)
	jmp	.Lj351
	.balign 4,0x90
.Lj367:
	cmpl	%esi,%r12d
	jnle	.Lj361
	.balign 4,0x90
.Lj360:
.Lj351:
# [192] end;
	movq	32(%rsp),%rax
	nop
	leaq	48(%rsp),%rsp
	popq	%r15
	popq	%r14
	popq	%r13
	popq	%r12
	popq	%rsi
	popq	%rdi
	popq	%rbx
	ret
.seh_endproc
.Lc161:

.section .text.n_system_$$_runerrorcode$exception_record$$longint,"x"
	.balign 16,0x90
SYSTEM_$$_RUNERRORCODE$EXCEPTION_RECORD$$LONGINT:
.Lc163:
# Var $result located in register eax
# Var rec located in register rcx
# [195] begin
# [197] case rec.ExceptionCode of
	movl	(%rcx),%eax
	cmpl	$3221225477,%eax
	jb	.Lj371
	subl	$-1073741819,%eax
	je	.Lj381
	subl	$24,%eax
	je	.Lj380
	subl	$111,%eax
	je	.Lj374
	subl	$1,%eax
	je	.Lj377
	subl	$1,%eax
	je	.Lj373
	subl	$1,%eax
	jb	.Lj371
	subl	$1,%eax
	jbe	.Lj378
	subl	$1,%eax
	je	.Lj376
	subl	$1,%eax
	je	.Lj378
	subl	$1,%eax
	je	.Lj377
	subl	$1,%eax
	je	.Lj372
	subl	$1,%eax
	je	.Lj379
	subl	$1,%eax
	je	.Lj383
	subl	$103,%eax
	je	.Lj375
	subl	$61,%eax
	je	.Lj382
	subl	$378,%eax
	jb	.Lj371
	subl	$1,%eax
	jbe	.Lj384
	jmp	.Lj371
	.balign 4,0x90
.Lj372:
# [198] STATUS_INTEGER_DIVIDE_BY_ZERO:        result := 200;  // reDivByZero
	movl	$200,%eax
	ret
	.balign 4,0x90
.Lj373:
# [199] STATUS_FLOAT_DIVIDE_BY_ZERO:          result := -208; // !!reZeroDivide
	movl	$-208,%eax
	ret
	.balign 4,0x90
.Lj374:
# [200] STATUS_ARRAY_BOUNDS_EXCEEDED:         result := 201;  // reRangeError
	movl	$201,%eax
	ret
	.balign 4,0x90
.Lj375:
# [201] STATUS_STACK_OVERFLOW:                result := 202;  // reStackOverflow
	movl	$202,%eax
	ret
	.balign 4,0x90
.Lj376:
# [202] STATUS_FLOAT_OVERFLOW:                result := -205; // reOverflow
	movl	$-205,%eax
	ret
	.balign 4,0x90
.Lj377:
# [204] STATUS_FLOAT_UNDERFLOW:               result := -206; // reUnderflow
	movl	$-206,%eax
	ret
	.balign 4,0x90
.Lj378:
# [207] STATUS_FLOAT_STACK_CHECK:             result := -207; // reInvalidOp
	movl	$-207,%eax
	ret
	.balign 4,0x90
.Lj379:
# [208] STATUS_INTEGER_OVERFLOW:              result := 215;  // reIntOverflow
	movl	$215,%eax
	ret
	.balign 4,0x90
.Lj380:
# [209] STATUS_ILLEGAL_INSTRUCTION:           result := -216;
	movl	$-216,%eax
	ret
	.balign 4,0x90
.Lj381:
# [210] STATUS_ACCESS_VIOLATION:              result := 216;  // reAccessViolation
	movl	$216,%eax
	ret
	.balign 4,0x90
.Lj382:
# [211] STATUS_CONTROL_C_EXIT:                result := 217;  // reControlBreak
	movl	$217,%eax
	ret
	.balign 4,0x90
.Lj383:
# [212] STATUS_PRIVILEGED_INSTRUCTION:        result := 218;  // rePrivilegedInstruction
	movl	$218,%eax
	ret
	.balign 4,0x90
.Lj384:
# [214] STATUS_FLOAT_MULTIPLE_FAULTS:         result := -255; // indicate FPU reset
	movl	$-255,%eax
	ret
	.balign 4,0x90
.Lj371:
# [216] result := 255; // reExternalException
	movl	$255,%eax
	.balign 4,0x90
# [218] end;
	ret
.Lc164:

.section .text.n_system_$$_translatemxcsr$longword$longint,"x"
	.balign 16,0x90
SYSTEM_$$_TRANSLATEMXCSR$LONGWORD$LONGINT:
.Lc165:
# [221] begin
	movl	%ecx,%eax
# Var mxcsr located in register eax
# Var code located in register rdx
# [224] if (mxcsr and 1) <> 0 then code := -207
	andl	$1,%ecx
	je	.Lj388
	movl	$-207,(%rdx)
	ret
.Lj388:
# [226] else if (mxcsr and 2) <> 0 then code := -206
	movl	%eax,%ecx
	andl	$2,%ecx
	je	.Lj391
	movl	$-206,(%rdx)
	ret
.Lj391:
# [228] else if (mxcsr and 4) <> 0 then code := -208
	movl	%eax,%ecx
	andl	$4,%ecx
	je	.Lj394
	movl	$-208,(%rdx)
	ret
.Lj394:
# [230] else if (mxcsr and 8) <> 0 then code := -205
	movl	%eax,%ecx
	andl	$8,%ecx
	je	.Lj397
	movl	$-205,(%rdx)
	ret
.Lj397:
# [232] else if (mxcsr and 16) <> 0 then code := -206
	movl	%eax,%ecx
	andl	$16,%ecx
	je	.Lj400
	movl	$-206,(%rdx)
	ret
.Lj400:
# [234] else if (mxcsr and 32) <> 0 then code := -207
	andl	$32,%eax
	je	.Lj403
	movl	$-207,(%rdx)
	ret
.Lj403:
# [236] code := -255;
	movl	$-255,(%rdx)
# [237] end;
	ret
.Lc166:

.section .text.n_system_$$_jumptohandlesignal,"x"
	.balign 16,0x90
SYSTEM_$$_JUMPTOHANDLESIGNAL:
.Lc167:
.seh_proc SYSTEM_$$_JUMPTOHANDLESIGNAL
# [exceptions64.inc]
# [185] begin
	pushq	%rbx
.seh_pushreg %rbx
	leaq	-32(%rsp),%rsp
.Lc169:
.seh_stackalloc 32
.seh_endprologue
# [186] writeln('JumpToHandleSignal');
	call	fpc_get_output
	movq	%rax,%rbx
	leaq	_$SYSTEM$_Ld5(%rip),%r8
	movq	%rbx,%rdx
	xorl	%ecx,%ecx
	call	fpc_write_text_shortstr
	movq	%rbx,%rcx
	call	fpc_writeln_end
# [237] end;
	nop
	leaq	32(%rsp),%rsp
	popq	%rbx
	ret
.seh_endproc
.Lc168:

.section .text.n_system_$$_signals_exception_handler$pexception_record$pexception_frame$pcontext$pointer$$longint,"x"
	.balign 16,0x90
SYSTEM_$$_SIGNALS_EXCEPTION_HANDLER$PEXCEPTION_RECORD$PEXCEPTION_FRAME$PCONTEXT$POINTER$$LONGINT:
.Lc170:
.seh_proc SYSTEM_$$_SIGNALS_EXCEPTION_HANDLER$PEXCEPTION_RECORD$PEXCEPTION_FRAME$PCONTEXT$POINTER$$LONGINT
# [253] begin
	pushq	%rbx
.seh_pushreg %rbx
	pushq	%rsi
.seh_pushreg %rsi
	leaq	-56(%rsp),%rsp
.Lc172:
.seh_stackalloc 56
.seh_endprologue
# Var exrec located at rsp+32, size=OS_64
# Var excontext located at rsp+40, size=OS_64
# Var $result located in register eax
# Var frame located in register eax
# Var ret located in register eax
	movq	%rcx,32(%rsp)
# Var exframe located in register rdx
	movq	%r8,40(%rsp)
# Var dispatch located in register r9
# [254] writeln('signals_exception_handler');
	call	fpc_get_output
	movq	%rax,%rbx
	leaq	_$SYSTEM$_Ld6(%rip),%r8
	movq	%rbx,%rdx
	xorl	%ecx,%ecx
	call	fpc_write_text_shortstr
	movq	%rbx,%rcx
	call	fpc_writeln_end
# [256] frame := excontext^.rbp;
	movq	40(%rsp),%rax
# Var frame located in register esi
	movl	160(%rax),%esi
# Var ret located in register eax
# [258] ret := 1;
	movl	$1,%eax
# [260] writeln('exrec^.ExceptionCode = ', exrec^.ExceptionCode);
	call	fpc_get_output
	movq	%rax,%rbx
	leaq	_$SYSTEM$_Ld7(%rip),%r8
	movq	%rbx,%rdx
	xorl	%ecx,%ecx
	call	fpc_write_text_shortstr
	movq	32(%rsp),%rax
	movl	(%rax),%r8d
	movq	%rbx,%rdx
	xorl	%ecx,%ecx
	call	fpc_write_text_uint
	movq	%rbx,%rcx
	call	fpc_writeln_end
# [266] ret := CallSignal(SIGSEGV, frame, false);
	movl	%esi,%r8d
# Var frame located in register r8d
	xorb	%r9b,%r9b
	movl	$291,%edx
	movq	%rsp,%rcx
	call	SYSTEM$_$SIGNALS_EXCEPTION_HANDLER$PEXCEPTION_RECORD$PEXCEPTION_FRAME$PCONTEXT$POINTER$$LONGINT_$$_CALLSIGNAL$crcC6EFD60B
# Var ret located in register eax
# Var $result located in register eax
# Var ret located in register eax
# [269] end;
	nop
	leaq	56(%rsp),%rsp
	popq	%rsi
	popq	%rbx
	ret
.seh_endproc
.Lc171:

.section .text.n_system$_$signals_exception_handler$pexception_record$pexception_frame$pcontext$pointer$$longint_$$_callsignal$crcc6efd60b,"x"
	.balign 16,0x90
SYSTEM$_$SIGNALS_EXCEPTION_HANDLER$PEXCEPTION_RECORD$PEXCEPTION_FRAME$PCONTEXT$POINTER$$LONGINT_$$_CALLSIGNAL$crcC6EFD60B:
.Lc173:
.seh_proc SYSTEM$_$SIGNALS_EXCEPTION_HANDLER$PEXCEPTION_RECORD$PEXCEPTION_FRAME$PCONTEXT$POINTER$$LONGINT_$$_CALLSIGNAL$crcC6EFD60B
# [241] begin
	leaq	-8(%rsp),%rsp
.Lc175:
.seh_stackalloc 8
.seh_endprologue
# Var $parentfp located at rsp+0, size=OS_64
# Var $result located in register eax
	movq	%rcx,(%rsp)
# Var sigtype located in register edx
# Var frame located in register r8d
# Var must_reset_fpu located in register r9b
# [242] if ex_level >= ex_max_level then exit;
	cmpb	$16,TC_$SYSTEM_$$_EX_LEVEL(%rip)
	jae	.Lj409
	.balign 4,0x90
# [243] ex_rip[ex_level] := excontext^.Rip;
	movq	(%rsp),%rax
	movq	40(%rax),%rax
	movzbl	TC_$SYSTEM_$$_EX_LEVEL(%rip),%r8d
	leaq	U_$SYSTEM_$$_EX_RIP(%rip),%rcx
	movq	248(%rax),%rax
	movq	%rax,(%rcx,%r8,8)
# [244] except_signal[ex_level] := sigtype;
	movzbl	TC_$SYSTEM_$$_EX_LEVEL(%rip),%ecx
	movslq	%edx,%rdx
	leaq	U_$SYSTEM_$$_EXCEPT_SIGNAL(%rip),%rax
	movq	%rdx,(%rax,%rcx,8)
# [245] reset_fpu[ex_level] := must_reset_fpu;
	movzbl	TC_$SYSTEM_$$_EX_LEVEL(%rip),%edx
# Var must_reset_fpu located in register r9b
	leaq	U_$SYSTEM_$$_RESET_FPU(%rip),%rax
	movb	%r9b,(%rax,%rdx,1)
# [246] inc(ex_level);
	addb	$1,TC_$SYSTEM_$$_EX_LEVEL(%rip)
# [247] excontext^.rip := ptruint(@JumpToHandleSignal);
	movq	(%rsp),%rax
	movq	40(%rax),%rax
	leaq	SYSTEM_$$_JUMPTOHANDLESIGNAL(%rip),%rdx
	movq	%rdx,248(%rax)
# [248] exrec^.ExceptionCode := 0;
	movq	(%rsp),%rax
	movq	32(%rax),%rax
	movl	$0,(%rax)
# [249] result := 0;
	xorl	%eax,%eax
.Lj409:
# [250] end;
	leaq	8(%rsp),%rsp
	ret
.seh_endproc
.Lc174:

.section .text.n_system_$$_syswin_x64_exception_handler$pexception_pointers$$longint,"x"
	.balign 16,0x90
SYSTEM_$$_SYSWIN_X64_EXCEPTION_HANDLER$PEXCEPTION_POINTERS$$LONGINT:
.Lc176:
.seh_proc SYSTEM_$$_SYSWIN_X64_EXCEPTION_HANDLER$PEXCEPTION_POINTERS$$LONGINT
# [272] begin
	pushq	%rbx
.seh_pushreg %rbx
	pushq	%rsi
.seh_pushreg %rsi
	leaq	-40(%rsp),%rsp
.Lc178:
.seh_stackalloc 40
.seh_endprologue
# Var $result located in register eax
	movq	%rcx,%rbx
# Var ex located in register rbx
# [273] writeln('syswin_x64_exception_handler');
	call	fpc_get_output
	movq	%rax,%rsi
	leaq	_$SYSTEM$_Ld8(%rip),%r8
	movq	%rsi,%rdx
	xorl	%ecx,%ecx
	call	fpc_write_text_shortstr
	movq	%rsi,%rcx
	call	fpc_writeln_end
# [275] result := signals_exception_handler(@ex^.ExceptionRecord, nil, @ex^.ContextRecord, nil);
	movq	%rbx,%rcx
# Var ex located in register rcx
	leaq	8(%rcx),%r8
# Var ex located in register rcx
	xorq	%r9,%r9
	xorl	%edx,%edx
	call	SYSTEM_$$_SIGNALS_EXCEPTION_HANDLER$PEXCEPTION_RECORD$PEXCEPTION_FRAME$PCONTEXT$POINTER$$LONGINT
	movl	%eax,%ebx
# Var $result located in register ebx
# [277] wait_for_enter;
	call	SYSTEM_$$_WAIT_FOR_ENTER
# [278] end;
	movl	%ebx,%eax
	nop
	leaq	40(%rsp),%rsp
	popq	%rsi
	popq	%rbx
	ret
.seh_endproc
.Lc177:

.section .text.n_system_$$_install_exception_handlers,"x"
	.balign 16,0x90
.globl	SYSTEM_$$_INSTALL_EXCEPTION_HANDLERS
SYSTEM_$$_INSTALL_EXCEPTION_HANDLERS:
.Lc179:
.seh_proc SYSTEM_$$_INSTALL_EXCEPTION_HANDLERS
# [284] begin
	leaq	-40(%rsp),%rsp
.Lc181:
.seh_stackalloc 40
.seh_endprologue
# [287] vectored_exception_handler := AddVectoredExceptionHandler(1{1 = higher priotity}, @syswin_x64_exception_handler);
	leaq	SYSTEM_$$_SYSWIN_X64_EXCEPTION_HANDLER$PEXCEPTION_POINTERS$$LONGINT(%rip),%rdx
	movl	$1,%ecx
	call	_$dll$kernel32$AddVectoredExceptionHandler
	movq	%rax,TC_$SYSTEM_$$_VECTORED_EXCEPTION_HANDLER(%rip)
# [288] end;
	nop
	leaq	40(%rsp),%rsp
	ret
.seh_endproc
.Lc180:

.section .text.n_system_$$_remove_exception_handlers,"x"
	.balign 16,0x90
.globl	SYSTEM_$$_REMOVE_EXCEPTION_HANDLERS
SYSTEM_$$_REMOVE_EXCEPTION_HANDLERS:
.Lc182:
.seh_proc SYSTEM_$$_REMOVE_EXCEPTION_HANDLERS
# [291] begin
	leaq	-40(%rsp),%rsp
.Lc184:
.seh_stackalloc 40
.seh_endprologue
# [293] if vectored_exception_handler <> nil then
	cmpq	$0,TC_$SYSTEM_$$_VECTORED_EXCEPTION_HANDLER(%rip)
	je	.Lj420
# [294] if RemoveVectoredExceptionHandler(vectored_exception_handler) then
	movq	TC_$SYSTEM_$$_VECTORED_EXCEPTION_HANDLER(%rip),%rcx
	call	_$dll$kernel32$RemoveVectoredExceptionHandler
	testl	%eax,%eax
	je	.Lj422
# [295] vectored_exception_handler := nil;
	movq	$0,TC_$SYSTEM_$$_VECTORED_EXCEPTION_HANDLER(%rip)
	.balign 4,0x90
.Lj422:
	.balign 4,0x90
.Lj420:
# [296] end;
	nop
	leaq	40(%rsp),%rsp
	ret
.seh_endproc
.Lc183:

.section .text.n_system_$$_runerrorcodeseh$exception_record$tcontext$$longint,"x"
	.balign 16,0x90
SYSTEM_$$_RUNERRORCODESEH$EXCEPTION_RECORD$TCONTEXT$$LONGINT:
.Lc185:
.seh_proc SYSTEM_$$_RUNERRORCODESEH$EXCEPTION_RECORD$TCONTEXT$$LONGINT
# [300] begin
	pushq	%rbx
.seh_pushreg %rbx
	leaq	-48(%rsp),%rsp
.Lc187:
.seh_stackalloc 48
.seh_endprologue
# Var $result located at rsp+32, size=OS_S32
	movq	%rcx,%rax
# Var rec located in register rax
	movq	%rdx,%rbx
# Var context located in register rbx
# [301] result := RunErrorCode(rec);
	movq	%rax,%rcx
	call	SYSTEM_$$_RUNERRORCODE$EXCEPTION_RECORD$$LONGINT
	movl	%eax,32(%rsp)
# [302] if (result = -255) then TranslateMxcsr(context.MxCsr, result);
	cmpl	$-255,%eax
	jne	.Lj426
	movl	52(%rbx),%ecx
	leaq	32(%rsp),%rdx
	call	SYSTEM_$$_TRANSLATEMXCSR$LONGWORD$LONGINT
	.balign 4,0x90
.Lj426:
# [303] end;
	movl	32(%rsp),%eax
	nop
	leaq	48(%rsp),%rsp
	popq	%rbx
	ret
.seh_endproc
.Lc186:

.section .text.n_system_$$_sysresetfpu,"x"
	.balign 16,0x90
SYSTEM_$$_SYSRESETFPU:
.Lc188:
.seh_proc SYSTEM_$$_SYSRESETFPU
# [309] begin
	pushq	%rbp
.seh_pushreg %rbp
.Lc190:
.Lc191:
	movq	%rsp,%rbp
.Lc192:
	leaq	-16(%rsp),%rsp
.seh_stackalloc 16
.seh_endprologue
# Var localmxcsr located at rbp-4, size=OS_32
# Var localfpucw located at rbp-8, size=OS_16
# [310] localfpucw := Default8087CW;
	movw	TC_$SYSTEM_$$_DEFAULT8087CW(%rip),%ax
	movw	%ax,-8(%rbp)
# [311] localmxcsr := DefaultMXCSR;
	movl	TC_$SYSTEM_$$_DEFAULTMXCSR(%rip),%eax
	movl	%eax,-4(%rbp)
#  CPU ATHLON64
# [313] fninit
	fninit
# [314] fwait
	fwait
# [315] fldcw   localfpucw
	fldcw	-8(%rbp)
# [316] ldmxcsr localmxcsr
	ldmxcsr	-4(%rbp)
#  CPU ATHLON64
# [318] end;
	leaq	(%rbp),%rsp
	popq	%rbp
	ret
.seh_endproc
.Lc189:

.section .text.n_system_$$_getbacktrace$tcontext$pointer$ppointer$$longint,"x"
	.balign 16,0x90
SYSTEM_$$_GETBACKTRACE$TCONTEXT$POINTER$PPOINTER$$LONGINT:
.Lc193:
# Temps allocated between rsp+304 and rsp+1440
.seh_proc SYSTEM_$$_GETBACKTRACE$TCONTEXT$POINTER$PPOINTER$$LONGINT
# [329] begin
	pushq	%rbx
.seh_pushreg %rbx
	pushq	%rdi
.seh_pushreg %rdi
	pushq	%rsi
.seh_pushreg %rsi
	pushq	%r12
.seh_pushreg %r12
	pushq	%r13
.seh_pushreg %r13
	leaq	-1440(%rsp),%rsp
.Lc195:
.seh_stackalloc 1440
.seh_endprologue
# Var $result located in register eax
# Var UnwindHistory located at rsp+64, size=OS_NO
# Var RuntimeFunction located in register rdi
# Var HandlerData located at rsp+280, size=OS_64
# Var EstablisherFrame located at rsp+288, size=OS_64
# Var ImageBase located at rsp+296, size=OS_64
# Var FrameCount located in register eax
# Var FrameBufSize located in register eax
	movq	%rcx,%rsi
# Var Context located in register rsi
	movq	%rdx,%rbx
# Var StartingFrame located in register rbx
	movq	%r8,%r12
# Var Frames located in register r12
	leaq	304(%rsp),%rdi
	movl	$142,%ecx
	rep
	movsq
# [330] FillChar(UnwindHistory, sizeof(UNWIND_HISTORY_TABLE), 0);
	leaq	64(%rsp),%rcx
	xorl	%r8d,%r8d
	movl	$216,%edx
	call	SYSTEM_$$_FILLCHAR$formal$QWORD$BYTE
# [331] UnwindHistory.Unwind := 1;
	movb	$1,70(%rsp)
# Var FrameCount located in register r13d
# [333] FrameCount := 0;
	xorl	%r13d,%r13d
# Var FrameBufSize located in register esi
# [334] FrameBufSize := 0;
	xorl	%esi,%esi
# [335] Frames := nil;
	movq	$0,(%r12)
	.balign 8,0x90
.Lj431:
# [337] RuntimeFunction := RtlLookupFunctionEntry(context.Rip, ImageBase, @UnwindHistory);
	leaq	64(%rsp),%r8
	movq	552(%rsp),%rcx
	leaq	296(%rsp),%rdx
	call	_$dll$kernel32$RtlLookupFunctionEntry
	movq	%rax,%rdi
# [339] if Assigned(RuntimeFunction) then RtlVirtualUnwind(UNW_FLAG_NHANDLER, ImageBase, context.Rip,
	testq	%rax,%rax
	je	.Lj435
	movq	$0,56(%rsp)
	leaq	304(%rsp),%rax
	movq	%rax,32(%rsp)
# [340] RuntimeFunction, Context, @HandlerData, @EstablisherFrame, nil)
	leaq	288(%rsp),%rax
	movq	%rax,48(%rsp)
	leaq	280(%rsp),%rax
	movq	%rax,40(%rsp)
	movq	552(%rsp),%r8
	movq	%rdi,%r9
	movq	296(%rsp),%rdx
	xorl	%ecx,%ecx
	call	_$dll$kernel32$RtlVirtualUnwind
	jmp	.Lj436
.Lj435:
# [342] Context.Rip := PQWord(Context.Rsp)^;
	movq	456(%rsp),%rax
	movq	(%rax),%rax
	movq	%rax,552(%rsp)
# [343] Inc(Context.Rsp, sizeof(Pointer));
	addq	$8,456(%rsp)
.Lj436:
# [346] if (context.Rip = 0) or (FrameCount >= RaiseMaxFrameCount) then break;
	cmpq	$0,552(%rsp)
	je	.Lj433
	cmpl	TC_$SYSTEM_$$_RAISEMAXFRAMECOUNT(%rip),%r13d
	jge	.Lj433
	.balign 4,0x90
# [348] if (Pointer(context.Rbp) > StartingFrame) or (FrameCount > 0) then begin
	cmpq	464(%rsp),%rbx
	jb	.Lj440
	testl	%r13d,%r13d
	jng	.Lj431
.Lj440:
# [349] if (FrameCount >= FrameBufSize) then begin
	cmpl	%r13d,%esi
	jnle	.Lj444
# [350] Inc(FrameBufSize, 16);
	addl	$16,%esi
# [351] ReallocMem(Frames, FrameBufSize * sizeof(Pointer));
	movslq	%esi,%rdx
	shlq	$3,%rdx
	movq	%r12,%rcx
	call	SYSTEM_$$_REALLOCMEM$POINTER$QWORD$$POINTER
	.balign 4,0x90
.Lj444:
# [353] Frames[FrameCount] := Pointer(context.Rip);
	movq	(%r12),%rdx
	movslq	%r13d,%rax
	movq	552(%rsp),%rcx
	movq	%rcx,(%rdx,%rax,8)
# [354] Inc(FrameCount);
	addl	$1,%r13d
	.balign 4,0x90
# [356] until false;
	jmp	.Lj431
.Lj433:
# Var $result located in register eax
# [357] Result := FrameCount;
	movl	%r13d,%eax
# Var FrameCount located in register eax
# [358] end;
	nop
	leaq	1440(%rsp),%rsp
	popq	%r13
	popq	%r12
	popq	%rsi
	popq	%rdi
	popq	%rbx
	ret
.seh_endproc
.Lc194:

.section .text.n_system_$$_pushexception$exception_record$tcontext$tobject$boolean$$boolean,"x"
	.balign 16,0x90
SYSTEM_$$_PUSHEXCEPTION$EXCEPTION_RECORD$TCONTEXT$TOBJECT$BOOLEAN$$BOOLEAN:
.Lc196:
# Temps allocated between rsp+40 and rsp+48
.seh_proc SYSTEM_$$_PUSHEXCEPTION$EXCEPTION_RECORD$TCONTEXT$TOBJECT$BOOLEAN$$BOOLEAN
# [367] begin
	pushq	%rbx
.seh_pushreg %rbx
	pushq	%rdi
.seh_pushreg %rdi
	pushq	%rsi
.seh_pushreg %rsi
	pushq	%r12
.seh_pushreg %r12
	pushq	%r13
.seh_pushreg %r13
	pushq	%r14
.seh_pushreg %r14
	pushq	%r15
.seh_pushreg %r15
	leaq	-48(%rsp),%rsp
.Lc198:
.seh_stackalloc 48
.seh_endprologue
# Var $result located in register al
# Var adr located in register rax
# Var exc located in register rax
# Var Frames located at rsp+32, size=OS_64
# Var FrameCount located in register eax
# Var code located in register ebx
	movq	%rcx,%rsi
# Var rec located in register rsi
	movq	%rdx,%r12
# Var context located in register r12
	movq	%r8,%r13
# Var obj located in register r13
	movb	%r9b,%dil
# Var AcceptNull located in register dil
# Var adr located in register r14
# [368] Adr := Pointer(rec.ExceptionInformation[0]);
	movq	32(%rsi),%r14
# [369] Obj := TObject(rec.ExceptionInformation[1]);
	movq	40(%rsi),%rax
	movq	%rax,(%r13)
# Var FrameCount located in register r15d
# [370] Framecount := longint(PtrUInt(rec.ExceptionInformation[2]));
	movl	48(%rsi),%r15d
# [371] Frames := Pointer(rec.ExceptionInformation[3]);
	movq	56(%rsi),%rax
	movq	%rax,32(%rsp)
# [373] if rec.ExceptionCode <> FPC_EXCEPTION_CODE then begin
	cmpl	$3762704451,(%rsi)
	je	.Lj448
# [374] Obj := nil;
	movq	$0,(%r13)
# [375] Result := false;
	movb	$0,40(%rsp)
# [376] code := RunErrorCodeSEH(rec, context);
	movq	%r12,%rdx
	movq	%rsi,%rcx
	call	SYSTEM_$$_RUNERRORCODESEH$EXCEPTION_RECORD$TCONTEXT$$LONGINT
	movl	%eax,%ebx
# [377] if Assigned(ExceptObjProc) then Obj := TObject(TExceptObjProc(ExceptObjProc)(abs(code), rec));
	cmpq	$0,TC_$SYSTEM_$$_EXCEPTOBJPROC(%rip)
	je	.Lj450
	movl	%ebx,%eax
	movl	%ebx,%ecx
	negl	%eax
	cmovnsl	%eax,%ecx
	movq	%rsi,%rdx
	call	*TC_$SYSTEM_$$_EXCEPTOBJPROC(%rip)
	movq	%rax,(%r13)
	.balign 4,0x90
.Lj450:
# [378] if (Obj = nil) and (not AcceptNull) then Exit;
	cmpq	$0,(%r13)
	jne	.Lj452
	testb	%dil,%dil
	je	.Lj445
	.balign 4,0x90
.Lj452:
# [379] adr := rec.ExceptionAddress;
	movq	16(%rsi),%r14
# [380] FrameCount := GetBacktrace(context, nil, Frames);
	movq	%r12,%rcx
	leaq	32(%rsp),%r8
	xorl	%edx,%edx
	call	SYSTEM_$$_GETBACKTRACE$TCONTEXT$POINTER$PPOINTER$$LONGINT
	movl	%eax,%r15d
# [381] if code < 0 then SysResetFPU;
	testl	%ebx,%ebx
	jnl	.Lj455
	call	SYSTEM_$$_SYSRESETFPU
	.balign 4,0x90
.Lj455:
	.balign 4,0x90
.Lj448:
# [384] New(exc);
	movl	$40,%ecx
	call	fpc_getmem
# Var exc located in register rax
# Var exc located in register rax
# [385] exc^.FObject := Obj;
	movq	(%r13),%rdx
	movq	%rdx,(%rax)
# Var exc located in register rax
# [386] exc^.Addr := adr;
	movq	%r14,8(%rax)
# Var adr located in register rdx
# Var exc located in register rax
# [387] exc^.Frames := Frames;
	movq	32(%rsp),%rdx
	movq	%rdx,32(%rax)
# Var exc located in register rax
# [388] exc^.FrameCount := FrameCount;
	movl	%r15d,28(%rax)
# Var FrameCount located in register edx
# Var exc located in register rax
# [389] exc^.Refcount := 0;
	movl	$0,24(%rax)
# Var exc located in register rax
# [390] exc^.Next := ExceptObjectStack;
	movq	U_$SYSTEM_$$_EXCEPTOBJECTSTACK(%rip),%rdx
	movq	%rdx,16(%rax)
# Var exc located in register rax
# [391] ExceptObjectStack := exc;
	movq	%rax,U_$SYSTEM_$$_EXCEPTOBJECTSTACK(%rip)
# [392] Result := true;
	movb	$1,40(%rsp)
.Lj445:
# [393] end;
	movb	40(%rsp),%al
	nop
	leaq	48(%rsp),%rsp
	popq	%r15
	popq	%r14
	popq	%r13
	popq	%r12
	popq	%rsi
	popq	%rdi
	popq	%rbx
	ret
.seh_endproc
.Lc197:

.section .text.n_fpc_popobjectstack,"x"
	.balign 16,0x90
.globl	fpc_popobjectstack
fpc_popobjectstack:
.globl	FPC_POPOBJECTSTACK
FPC_POPOBJECTSTACK:
.Lc199:
.seh_proc fpc_popobjectstack
# [399] begin
	pushq	%rbx
.seh_pushreg %rbx
	pushq	%rsi
.seh_pushreg %rsi
	leaq	-40(%rsp),%rsp
.Lc201:
.seh_stackalloc 40
.seh_endprologue
# Var $result located in register rsi
# Var hp located in register rax
# Var hp located in register rbx
# [400] hp := ExceptObjectStack;
	movq	U_$SYSTEM_$$_EXCEPTOBJECTSTACK(%rip),%rbx
# [401] if hp = nil then
	testq	%rbx,%rbx
	jne	.Lj459
# [402] halt(1)
	movl	$1,%ecx
	call	SYSTEM_$$_HALT$LONGINT
	jmp	.Lj460
.Lj459:
# [404] if hp^.refcount = 0 then result := hp^.FObject else result := nil;
	cmpl	$0,24(%rbx)
	jne	.Lj462
	movq	(%rbx),%rsi
	jmp	.Lj463
.Lj462:
	xorl	%esi,%esi
.Lj463:
# [405] ExceptObjectStack := hp^.next;
	movq	16(%rbx),%rax
	movq	%rax,U_$SYSTEM_$$_EXCEPTOBJECTSTACK(%rip)
# [406] if assigned(hp^.frames) then freemem(hp^.frames);
	cmpq	$0,32(%rbx)
	je	.Lj465
	movq	32(%rbx),%rcx
	call	SYSTEM_$$_FREEMEM$POINTER$$QWORD
	.balign 4,0x90
.Lj465:
# [407] dispose(hp);
	movq	%rbx,%rcx
	call	fpc_freemem
# [408] erroraddr := nil;
	movq	$0,TC_$SYSTEM_$$_ERRORADDR(%rip)
.Lj460:
# [410] end;
	movq	%rsi,%rax
	nop
	leaq	40(%rsp),%rsp
	popq	%rsi
	popq	%rbx
	ret
.seh_endproc
.Lc200:

.section .text.n_system_$$___fpc_specific_handler$crc71b92073,"x"
	.balign 16,0x90
.globl	SYSTEM_$$___FPC_SPECIFIC_HANDLER$crc71B92073
SYSTEM_$$___FPC_SPECIFIC_HANDLER$crc71B92073:
.globl	__FPC_specific_handler
__FPC_specific_handler:
.Lc202:
# Temps allocated between rsp+56 and rsp+72
.seh_proc SYSTEM_$$___FPC_SPECIFIC_HANDLER$crc71B92073
# [427] begin
	pushq	%rbx
.seh_pushreg %rbx
	pushq	%rdi
.seh_pushreg %rdi
	pushq	%rsi
.seh_pushreg %rsi
	pushq	%r12
.seh_pushreg %r12
	pushq	%r13
.seh_pushreg %r13
	pushq	%r14
.seh_pushreg %r14
	pushq	%r15
.seh_pushreg %r15
	leaq	-80(%rsp),%rsp
.Lc204:
.seh_stackalloc 80
.seh_endprologue
# Var $result located in register eax
# Var TargetRva located in register ebx
# Var ControlRva located in register eax
# Var scope located in register rdi
# Var scopeIdx located in register eax
# Var TargetAddr located in register rbx
# Var obj located at rsp+48, size=OS_64
	movq	%rcx,64(%rsp)
# Var rec located in register rax
	movq	%rdx,%rsi
# Var frame located in register rsi
	movq	%r8,56(%rsp)
# Var context located in register rax
	movq	%r9,%r15
# Var dispatch located in register r15
# [428] writeln('__FPC_specific_handler');
	call	fpc_get_output
	movq	%rax,%rbx
	leaq	_$SYSTEM$_Ld9(%rip),%r8
	movq	%rbx,%rdx
	xorl	%ecx,%ecx
	call	fpc_write_text_shortstr
	movq	%rbx,%rcx
	call	fpc_writeln_end
# Var $result located in register r14d
# [429] result := ExceptionContinueSearch;
	movl	$1,%r14d
	movq	%r15,%rax
# [430] ControlRva := dispatch.ControlPc - dispatch.ImageBase;
	movq	(%rax),%rdx
	movq	8(%rax),%rax
	subq	%rax,%rdx
# Var ControlRva located in register r13d
	movl	%edx,%r13d
# Var scopeIdx located in register r12d
# [431] ScopeIdx := dispatch.ScopeIndex;
	movl	72(%r15),%r12d
# [432] if (rec.ExceptionFlags and EXCEPTION_UNWIND) = 0 then begin
	movq	64(%rsp),%rdx
	movl	4(%rdx),%eax
	andl	$6,%eax
	jne	.Lj469
# [433] while ScopeIdx < PDWord(dispatch.HandlerData)^ do begin
	jmp	.Lj471
	.balign 8,0x90
.Lj470:
# [434] scope := @PScopeRec(dispatch.HandlerData + sizeof(Dword))[ScopeIdx];
	movq	56(%r15),%rax
	leaq	4(%rax),%rdx
	movl	%r12d,%eax
	shlq	$4,%rax
	leaq	(%rdx,%rax),%rdi
# [437] if (ControlRva >= scope^.RvaEnd) and (ControlRva < scope^.RvaHandler) and ((scope^.Typ = SCOPE_CATCHALL) or (scope^.Typ > SCOPE_IMPLICIT)) then
	cmpl	8(%rdi),%r13d
	jnae	.Lj474
	cmpl	12(%rdi),%r13d
	jnb	.Lj474
	movl	(%rdi),%eax
	cmpl	$1,%eax
	je	.Lj476
	cmpl	$2,%eax
	jna	.Lj474
.Lj476:
# [438] internal_popobjectstack.Free
	call	FPC_POPOBJECTSTACK
	movq	%rax,%rcx
	call	SYSTEM$_$TOBJECT_$__$$_FREE
	jmp	.Lj480
.Lj474:
# [439] else if (ControlRva >= scope^.RvaStart) and (ControlRva < scope^.RvaEnd) and (scope^.Typ <> SCOPE_FINALLY) then begin
	cmpl	4(%rdi),%r13d
	jnae	.Lj482
	cmpl	8(%rdi),%r13d
	jnb	.Lj482
	cmpl	$0,(%rdi)
	je	.Lj482
# [440] if scope^.Typ > SCOPE_IMPLICIT then begin
	cmpl	$2,(%rdi)
	jna	.Lj486
# [441] TargetAddr := FilterException(rec, dispatch.ImageBase, scope^.Typ, abs(RunErrorCodeSEH(rec, context)));
	movq	56(%rsp),%rdx
	movq	64(%rsp),%rcx
	call	SYSTEM_$$_RUNERRORCODESEH$EXCEPTION_RECORD$TCONTEXT$$LONGINT
	movl	%eax,%edx
	negl	%edx
	cmovnsl	%edx,%eax
	movl	(%rdi),%r8d
	movq	8(%r15),%rdx
	movq	64(%rsp),%rcx
	movl	%eax,%r9d
	call	SYSTEM_$$_FILTEREXCEPTION$EXCEPTION_RECORD$QWORD$LONGWORD$LONGINT$$POINTER
	movq	%rax,%rbx
# [442] if TargetAddr = nil then begin
	testq	%rax,%rax
	jne	.Lj489
# [443] inc(ScopeIdx);
	addl	$1,%r12d
# [444] continue;
	jmp	.Lj471
	.balign 4,0x90
	jmp	.Lj489
.Lj486:
# [447] TargetAddr := Pointer(scope^.RvaEnd + dispatch.ImageBase);
	movl	8(%rdi),%eax
	addq	8(%r15),%rax
	movq	%rax,%rbx
.Lj489:
# [449] if not PushException(rec, context, obj, Scope^.Typ = SCOPE_IMPLICIT) then exit;
	cmpl	$2,(%rdi)
	seteb	%r9b
	movq	56(%rsp),%rdx
	movq	64(%rsp),%rcx
	leaq	48(%rsp),%r8
	call	SYSTEM_$$_PUSHEXCEPTION$EXCEPTION_RECORD$TCONTEXT$TOBJECT$BOOLEAN$$BOOLEAN
	testb	%al,%al
	je	.Lj466
	.balign 4,0x90
# [453] RtlUnwindEx(@frame, TargetAddr, @rec, obj, dispatch.ContextRecord, dispatch.HistoryTable);
	movq	64(%r15),%rax
	movq	%rax,40(%rsp)
	movq	40(%r15),%rax
	movq	%rax,32(%rsp)
	movq	64(%rsp),%r8
	movq	%rsi,%rcx
	movq	48(%rsp),%r9
	movq	%rbx,%rdx
	call	_$dll$kernel32$RtlUnwindEx
	.balign 4,0x90
.Lj482:
.Lj480:
# [455] inc(ScopeIdx);
	addl	$1,%r12d
.Lj471:
	movq	56(%r15),%rax
	cmpl	(%rax),%r12d
	jb	.Lj470
	jmp	.Lj492
.Lj469:
	movq	%r15,%rax
# [458] TargetRva := dispatch.TargetIp - dispatch.ImageBase;
	movq	32(%rax),%rdx
	movq	8(%rax),%rax
	subq	%rax,%rdx
	movl	%edx,%ebx
# [460] while ScopeIdx < PDword(dispatch.HandlerData)^ do begin
	jmp	.Lj494
	.balign 8,0x90
.Lj493:
# [461] scope := @PScopeRec(dispatch.HandlerData + sizeof(Dword))[ScopeIdx];
	movq	56(%r15),%rax
	leaq	4(%rax),%rdx
	movl	%r12d,%eax
	shlq	$4,%rax
	leaq	(%rdx,%rax),%rdi
# [462] if (ControlRva >= scope^.RvaStart) and (ControlRva < scope^.RvaEnd) and ((scope^.Typ = SCOPE_FINALLY) or (scope^.Typ = SCOPE_IMPLICIT)) then begin
	cmpl	4(%rdi),%r13d
	jnae	.Lj497
	cmpl	8(%rdi),%r13d
	jnb	.Lj497
	movl	(%rdi),%eax
	testl	%eax,%eax
	je	.Lj499
	cmpl	$2,%eax
	jne	.Lj497
.Lj499:
# [463] if (TargetRva >= scope^.RvaStart) and (TargetRva < scope^.RvaEnd) and ((rec.ExceptionFlags and EXCEPTION_TARGET_UNWIND) <> 0) then exit;
	cmpl	4(%rdi),%ebx
	jnae	.Lj504
	cmpl	8(%rdi),%ebx
	jnb	.Lj504
	movq	64(%rsp),%rdx
	movl	4(%rdx),%eax
	andl	$32,%eax
	jne	.Lj466
	.balign 4,0x90
.Lj504:
# [465] dispatch.ScopeIndex := ScopeIdx + 1;
	leal	1(%r12d),%eax
	movl	%eax,72(%r15)
# [467] TUnwindProc(dispatch.ImageBase + scope^.RvaHandler)(context.Rbp);
	movq	56(%rsp),%rax
	movq	160(%rax),%rcx
	movl	12(%rdi),%eax
	addq	8(%r15),%rax
	call	*%rax
	.balign 4,0x90
.Lj497:
# [469] inc(ScopeIdx);
	addl	$1,%r12d
.Lj494:
	movq	56(%r15),%rax
	cmpl	(%rax),%r12d
	jb	.Lj493
.Lj492:
.Lj466:
# [472] end;
	movl	%r14d,%eax
	nop
	leaq	80(%rsp),%rsp
	popq	%r15
	popq	%r14
	popq	%r13
	popq	%r12
	popq	%rsi
	popq	%rdi
	popq	%rbx
	ret
.seh_endproc
.Lc203:

.section .text.n_fpc_doneexception,"x"
	.balign 16,0x90
.globl	fpc_doneexception
fpc_doneexception:
.globl	FPC_DONEEXCEPTION
FPC_DONEEXCEPTION:
.Lc205:
.seh_proc fpc_doneexception
# [476] begin
	leaq	-40(%rsp),%rsp
.Lc207:
.seh_stackalloc 40
.seh_endprologue
# [477] internal_popobjectstack.Free;
	call	FPC_POPOBJECTSTACK
	movq	%rax,%rcx
	call	SYSTEM$_$TOBJECT_$__$$_FREE
# [478] end;
	nop
	leaq	40(%rsp),%rsp
	ret
.seh_endproc
.Lc206:

.section .text.n_fpc_reraise,"x"
	.balign 16,0x90
.globl	fpc_reraise
fpc_reraise:
.globl	FPC_RERAISE
FPC_RERAISE:
.Lc208:
# [481] begin
# [482] end;
	ret
.Lc209:

.section .text.n_fpc_raise_nested,"x"
	.balign 16,0x90
.globl	fpc_raise_nested
fpc_raise_nested:
.globl	FPC_RAISE_NESTED
FPC_RAISE_NESTED:
.Lc210:
# [485] begin
# [486] end;
	ret
.Lc211:

.section .text.n_fpc_raiseexception,"x"
	.balign 16,0x90
.globl	fpc_raiseexception
fpc_raiseexception:
.globl	FPC_RAISEEXCEPTION
FPC_RAISEEXCEPTION:
.Lc212:
.seh_proc fpc_raiseexception
# [489] begin
	pushq	%rbx
.seh_pushreg %rbx
	pushq	%rdi
.seh_pushreg %rdi
	pushq	%rsi
.seh_pushreg %rsi
	pushq	%r12
.seh_pushreg %r12
	leaq	-40(%rsp),%rsp
.Lc214:
.seh_stackalloc 40
.seh_endprologue
	movq	%rcx,%rbx
# Var obj located in register rbx
	movq	%rdx,%rsi
# Var anaddr located in register rsi
	movq	%r8,%rdi
# Var aframe located in register rdi
# [490] writeln('fpc_raiseexception');
	call	fpc_get_output
	movq	%rax,%r12
	leaq	_$SYSTEM$_Ld10(%rip),%r8
	movq	%r12,%rdx
	xorl	%ecx,%ecx
	call	fpc_write_text_shortstr
	movq	%r12,%rcx
	call	fpc_writeln_end
# [492] if obj = nil then writeln('obj nil');
	testq	%rbx,%rbx
	jne	.Lj516
	call	fpc_get_output
	movq	%rax,%r12
	leaq	_$SYSTEM$_Ld11(%rip),%r8
	movq	%r12,%rdx
	xorl	%ecx,%ecx
	call	fpc_write_text_shortstr
	movq	%r12,%rcx
	call	fpc_writeln_end
	.balign 4,0x90
.Lj516:
# [493] if anaddr = nil then writeln('anaddr nil');
	testq	%rsi,%rsi
	jne	.Lj518
	call	fpc_get_output
	movq	%rax,%rsi
	leaq	_$SYSTEM$_Ld12(%rip),%r8
	movq	%rsi,%rdx
	xorl	%ecx,%ecx
	call	fpc_write_text_shortstr
	movq	%rsi,%rcx
	call	fpc_writeln_end
	.balign 4,0x90
.Lj518:
# [494] if aframe = nil then writeln('aframe nil');
	testq	%rdi,%rdi
	jne	.Lj520
	call	fpc_get_output
	movq	%rax,%rsi
	leaq	_$SYSTEM$_Ld13(%rip),%r8
	movq	%rsi,%rdx
	xorl	%ecx,%ecx
	call	fpc_write_text_shortstr
	movq	%rsi,%rcx
	call	fpc_writeln_end
	.balign 4,0x90
.Lj520:
# [496] if obj <> nil then begin
	testq	%rbx,%rbx
	je	.Lj522
# [497] writeln('exception message = ', TTestException(obj).test);
	call	fpc_get_output
	movq	%rax,%rsi
	leaq	_$SYSTEM$_Ld14(%rip),%r8
	movq	%rsi,%rdx
	xorl	%ecx,%ecx
	call	fpc_write_text_shortstr
	movq	8(%rbx),%r8
	movq	%rsi,%rdx
	xorl	%ecx,%ecx
	call	fpc_write_text_ansistr
	movq	%rsi,%rcx
	call	fpc_writeln_end
	.balign 4,0x90
.Lj522:
# [499] end;
	nop
	leaq	40(%rsp),%rsp
	popq	%r12
	popq	%rsi
	popq	%rdi
	popq	%rbx
	ret
.seh_endproc
.Lc213:

.section .text.n_fpc_initialize,"x"
	.balign 16,0x90
.globl	fpc_initialize
fpc_initialize:
.globl	FPC_INITIALIZE
FPC_INITIALIZE:
.Lc215:
.seh_proc fpc_initialize
# [rtti.inc]
# [35] begin
	pushq	%rbx
.seh_pushreg %rbx
	leaq	-32(%rsp),%rsp
.Lc217:
.seh_stackalloc 32
.seh_endprologue
	movq	%rcx,%rax
# Var data located in register rax
# Var typeinfo located in register rdx
# [36] writeln('fpc_initialize');
	call	fpc_get_output
	movq	%rax,%rbx
	leaq	_$SYSTEM$_Ld15(%rip),%r8
	movq	%rbx,%rdx
	xorl	%ecx,%ecx
	call	fpc_write_text_shortstr
	movq	%rbx,%rcx
	call	fpc_writeln_end
# [37] end;
	nop
	leaq	32(%rsp),%rsp
	popq	%rbx
	ret
.seh_endproc
.Lc216:

.section .text.n_fpc_finalize,"x"
	.balign 16,0x90
.globl	fpc_finalize
fpc_finalize:
.globl	FPC_FINALIZE
FPC_FINALIZE:
.Lc218:
.seh_proc fpc_finalize
# [40] begin
	pushq	%rbx
.seh_pushreg %rbx
	pushq	%rsi
.seh_pushreg %rsi
	leaq	-40(%rsp),%rsp
.Lc220:
.seh_stackalloc 40
.seh_endprologue
	movq	%rcx,%rax
# Var data located in register rax
	movq	%rdx,%rbx
# Var typeinfo located in register rbx
# [41] writeln('fpc_finalize');
	call	fpc_get_output
	movq	%rax,%rsi
	leaq	_$SYSTEM$_Ld16(%rip),%r8
	movq	%rsi,%rdx
	xorl	%ecx,%ecx
	call	fpc_write_text_shortstr
	movq	%rsi,%rcx
	call	fpc_writeln_end
# [43] case PTypeKind(typeinfo)^ of
	movl	(%rbx),%eax
	cmpl	$14,%eax
	jb	.Lj528
	subl	$14,%eax
	jne	.Lj528
	.balign 4,0x90
# [44] tkInterface: writeln('decrease refcount of interfaced object');
	call	fpc_get_output
	movq	%rax,%rbx
	leaq	_$SYSTEM$_Ld17(%rip),%r8
	movq	%rbx,%rdx
	xorl	%ecx,%ecx
	call	fpc_write_text_shortstr
	movq	%rbx,%rcx
	call	fpc_writeln_end
	.balign 4,0x90
.Lj528:
	.balign 4,0x90
# [46] end;
	nop
	leaq	40(%rsp),%rsp
	popq	%rsi
	popq	%rbx
	ret
.seh_endproc
.Lc219:

.section .text.n_fpc_addref,"x"
	.balign 16,0x90
.globl	fpc_addref
fpc_addref:
.globl	FPC_ADDREF
FPC_ADDREF:
.Lc221:
.seh_proc fpc_addref
# [49] begin
	pushq	%rbx
.seh_pushreg %rbx
	leaq	-32(%rsp),%rsp
.Lc223:
.seh_stackalloc 32
.seh_endprologue
	movq	%rcx,%rax
# Var data located in register rax
# Var typeinfo located in register rdx
# [50] writeln('fpc_addref');
	call	fpc_get_output
	movq	%rax,%rbx
	leaq	_$SYSTEM$_Ld18(%rip),%r8
	movq	%rbx,%rdx
	xorl	%ecx,%ecx
	call	fpc_write_text_shortstr
	movq	%rbx,%rcx
	call	fpc_writeln_end
# [51] end;
	nop
	leaq	32(%rsp),%rsp
	popq	%rbx
	ret
.seh_endproc
.Lc222:

.section .text.n_fpc_decref,"x"
	.balign 16,0x90
.globl	fpc_decref
fpc_decref:
.globl	FPC_DECREF
FPC_DECREF:
.Lc224:
.seh_proc fpc_decref
# [54] begin
	pushq	%rbx
.seh_pushreg %rbx
	leaq	-32(%rsp),%rsp
.Lc226:
.seh_stackalloc 32
.seh_endprologue
	movq	%rcx,%rax
# Var data located in register rax
# Var typeinfo located in register rdx
# [55] writeln('fpc_decref');
	call	fpc_get_output
	movq	%rax,%rbx
	leaq	_$SYSTEM$_Ld19(%rip),%r8
	movq	%rbx,%rdx
	xorl	%ecx,%ecx
	call	fpc_write_text_shortstr
	movq	%rbx,%rcx
	call	fpc_writeln_end
# [56] end;
	nop
	leaq	32(%rsp),%rsp
	popq	%rbx
	ret
.seh_endproc
.Lc225:

.section .text.n_fpc_get_input,"x"
	.balign 16,0x90
.globl	fpc_get_input
fpc_get_input:
.Lc227:
# Var $result located in register rax
# [io.inc]
# [85] begin
# Var $result located in register rax
# [86] result := nil;
	xorl	%eax,%eax
# [87] end;
	ret
.Lc228:

.section .text.n_fpc_get_output,"x"
	.balign 16,0x90
.globl	fpc_get_output
fpc_get_output:
.Lc229:
# Var $result located in register rax
# [90] begin
# Var $result located in register rax
# [91] result := nil;
	xorl	%eax,%eax
# [92] end;
	ret
.Lc230:

.section .text.n_fpc_write_end,"x"
	.balign 16,0x90
.globl	fpc_write_end
fpc_write_end:
.Lc231:
# [95] begin
	movq	%rcx,%rax
# Var f located in register rax
# [96] end;
	ret
.Lc232:

.section .text.n_system$_$fpc_writeln_end$text_$$_fin$0000024d,"x"
	.balign 16,0x90
SYSTEM$_$fpc_writeln_end$TEXT_$$_fin$0000024D:
.Lc233:
.seh_proc SYSTEM$_$fpc_writeln_end$TEXT_$$_fin$0000024D
# [104] end;
	pushq	%rbp
.seh_pushreg %rbp
.Lc235:
.Lc236:
	movq	%rcx,%rbp
.Lc237:
	leaq	-32(%rsp),%rsp
.seh_stackalloc 32
.seh_endprologue
	leaq	-8(%rbp),%rcx
	call	fpc_ansistr_decr_ref
# [101] begin
	nop
	leaq	32(%rsp),%rsp
	popq	%rbp
	ret
.seh_endproc
.Lc234:

.section .text.n_fpc_writeln_end,"x"
	.balign 16,0x90
.globl	fpc_writeln_end
fpc_writeln_end:
.Lc238:
.seh_proc fpc_writeln_end
	pushq	%rbp
.seh_pushreg %rbp
.Lc240:
.Lc241:
	movq	%rsp,%rbp
.Lc242:
	leaq	-64(%rsp),%rsp
.seh_stackalloc 64
.seh_endprologue
# Var s located at rbp-8, size=OS_64
	movq	%rcx,%rax
# Var f located in register rax
	movq	$0,-8(%rbp)
.Lj548:
	nop
.Lj544:
# [102] s := LineEnding;
	leaq	-8(%rbp),%rcx
	leaq	.Ld20(%rip),%rdx
	call	fpc_ansistr_assign
# [103] WriteConsoleA(StdOut, @s[1], length(s), nil, nil);
	movq	$0,32(%rsp)
	movq	-8(%rbp),%r8
	testq	%r8,%r8
	je	.Lj549
	movq	-8(%r8),%r8
.Lj549:
	movq	-8(%rbp),%rdx
	movq	U_$SYSTEM_$$_STDOUT(%rip),%rcx
	xorq	%r9,%r9
	call	_$dll$kernel32$WriteConsoleA
.Lj546:
	nop
.Lj545:
	movq	%rbp,%rcx
	call	SYSTEM$_$fpc_writeln_end$TEXT_$$_fin$0000024D
	nop
	leaq	(%rbp),%rsp
	popq	%rbp
	ret
.seh_handler __FPC_specific_handler,@unwind
.seh_handlerdata
	.long	1
	.long	0
	.rva	.Lj544
	.rva	.Lj545
	.rva	SYSTEM$_$fpc_writeln_end$TEXT_$$_fin$0000024D

.section .text.n_fpc_writeln_end,"x"
.seh_endproc
.Lc239:

.section .text.n_fpc_write_text_char,"x"
	.balign 16,0x90
.globl	fpc_write_text_char
fpc_write_text_char:
.globl	FPC_WRITE_TEXT_CHAR
FPC_WRITE_TEXT_CHAR:
.Lc243:
.seh_proc fpc_write_text_char
# [107] begin
	leaq	-56(%rsp),%rsp
.Lc245:
.seh_stackalloc 56
.seh_endprologue
# Var c located at rsp+40, size=OS_8
	movl	%ecx,%eax
# Var len located in register eax
# Var t located in register rdx
	movb	%r8b,40(%rsp)
# [108] WriteConsoleA(StdOut, @c, 1, nil, nil);
	movq	$0,32(%rsp)
	leaq	40(%rsp),%rdx
	movq	U_$SYSTEM_$$_STDOUT(%rip),%rcx
	xorq	%r9,%r9
	movl	$1,%r8d
	call	_$dll$kernel32$WriteConsoleA
# [109] end;
	nop
	leaq	56(%rsp),%rsp
	ret
.seh_endproc
.Lc244:

.section .text.n_fpc_write_text_widechar,"x"
	.balign 16,0x90
.globl	fpc_write_text_widechar
fpc_write_text_widechar:
.Lc246:
.seh_proc fpc_write_text_widechar
# [112] begin
	leaq	-56(%rsp),%rsp
.Lc248:
.seh_stackalloc 56
.seh_endprologue
# Var c located at rsp+40, size=OS_16
	movl	%ecx,%eax
# Var len located in register eax
# Var t located in register rdx
	movw	%r8w,40(%rsp)
# [113] WriteConsoleW(StdOut, @c, 1, nil, nil);
	movq	$0,32(%rsp)
	leaq	40(%rsp),%rdx
	movq	U_$SYSTEM_$$_STDOUT(%rip),%rcx
	xorq	%r9,%r9
	movl	$1,%r8d
	call	_$dll$kernel32$WriteConsoleW
# [114] end;
	nop
	leaq	56(%rsp),%rsp
	ret
.seh_endproc
.Lc247:

.section .text.n_fpc_write_text_shortstr,"x"
	.balign 16,0x90
.globl	fpc_write_text_shortstr
fpc_write_text_shortstr:
.globl	FPC_WRITE_TEXT_SHORTSTR
FPC_WRITE_TEXT_SHORTSTR:
.Lc249:
.seh_proc fpc_write_text_shortstr
# [117] begin
	leaq	-40(%rsp),%rsp
.Lc251:
.seh_stackalloc 40
.seh_endprologue
	movl	%ecx,%eax
# Var len located in register eax
# Var f located in register rdx
	movq	%r8,%rax
# Var s located in register rax
# [118] WriteConsoleA(StdOut, @s[1], ord(s[0]), nil, nil);
	movq	$0,32(%rsp)
	movzbl	(%rax),%r8d
	leaq	1(%rax),%rdx
	movq	U_$SYSTEM_$$_STDOUT(%rip),%rcx
	xorq	%r9,%r9
	call	_$dll$kernel32$WriteConsoleA
# [119] end;
	nop
	leaq	40(%rsp),%rsp
	ret
.seh_endproc
.Lc250:

.section .text.n_fpc_write_text_ansistr,"x"
	.balign 16,0x90
.globl	fpc_write_text_ansistr
fpc_write_text_ansistr:
.globl	FPC_WRITE_TEXT_ANSISTR
FPC_WRITE_TEXT_ANSISTR:
.Lc252:
.seh_proc fpc_write_text_ansistr
# [127] begin
	leaq	-40(%rsp),%rsp
.Lc254:
.seh_stackalloc 40
.seh_endprologue
	movl	%ecx,%eax
# Var len located in register eax
# Var f located in register rdx
	movq	%r8,%rdx
# Var s located in register rdx
# [128] WriteConsoleA(StdOut, @s[1], length(s), nil, nil);
	movq	$0,32(%rsp)
	movq	%rdx,%r8
	testq	%rdx,%rdx
	je	.Lj558
	movq	-8(%r8),%r8
.Lj558:
	movq	U_$SYSTEM_$$_STDOUT(%rip),%rcx
	xorq	%r9,%r9
	call	_$dll$kernel32$WriteConsoleA
# [129] end;
	nop
	leaq	40(%rsp),%rsp
	ret
.seh_endproc
.Lc253:

.section .text.n_fpc_write_text_widestr,"x"
	.balign 16,0x90
.globl	fpc_write_text_widestr
fpc_write_text_widestr:
.Lc255:
.seh_proc fpc_write_text_widestr
# [132] begin
	leaq	-40(%rsp),%rsp
.Lc257:
.seh_stackalloc 40
.seh_endprologue
	movl	%ecx,%eax
# Var len located in register eax
# Var f located in register rdx
	movq	%r8,%rdx
# Var s located in register rdx
# [133] if pointer(s) = nil then exit;
	testq	%r8,%r8
	je	.Lj559
	.balign 4,0x90
# [134] WriteConsoleW(StdOut, @s[1], length(s), nil, nil);
	movq	$0,32(%rsp)
	movq	%rdx,%r8
	testq	%rdx,%rdx
	je	.Lj563
	movl	-4(%r8),%r8d
	shrq	$1,%r8
.Lj563:
	movq	U_$SYSTEM_$$_STDOUT(%rip),%rcx
	xorq	%r9,%r9
	call	_$dll$kernel32$WriteConsoleW
.Lj559:
# [135] end;
	nop
	leaq	40(%rsp),%rsp
	ret
.seh_endproc
.Lc256:

.section .text.n_fpc_write_text_unicodestr,"x"
	.balign 16,0x90
.globl	fpc_write_text_unicodestr
fpc_write_text_unicodestr:
.Lc258:
.seh_proc fpc_write_text_unicodestr
# [138] begin
	leaq	-40(%rsp),%rsp
.Lc260:
.seh_stackalloc 40
.seh_endprologue
	movl	%ecx,%eax
# Var len located in register eax
# Var f located in register rdx
	movq	%r8,%rdx
# Var s located in register rdx
# [139] if pointer(s) = nil then exit;
	testq	%r8,%r8
	je	.Lj564
	.balign 4,0x90
# [140] WriteConsoleW(StdOut, @s[1], length(s), nil, nil);
	movq	$0,32(%rsp)
	movq	%rdx,%r8
	testq	%rdx,%rdx
	je	.Lj568
	movq	-8(%r8),%r8
.Lj568:
	movq	U_$SYSTEM_$$_STDOUT(%rip),%rcx
	xorq	%r9,%r9
	call	_$dll$kernel32$WriteConsoleW
.Lj564:
# [141] end;
	nop
	leaq	40(%rsp),%rsp
	ret
.seh_endproc
.Lc259:

.section .text.n_fpc_read_end,"x"
	.balign 16,0x90
.globl	fpc_read_end
fpc_read_end:
.globl	FPC_READ_END
FPC_READ_END:
.Lc261:
# [144] begin
	movq	%rcx,%rax
# Var f located in register rax
# [145] end;
	ret
.Lc262:

.section .text.n_system$_$int_write_to_console$ansistring_$$_fin$0000024e,"x"
	.balign 16,0x90
SYSTEM$_$INT_WRITE_TO_CONSOLE$ANSISTRING_$$_fin$0000024E:
.Lc263:
.seh_proc SYSTEM$_$INT_WRITE_TO_CONSOLE$ANSISTRING_$$_fin$0000024E
# [152] end;
	pushq	%rbp
.seh_pushreg %rbp
.Lc265:
.Lc266:
	movq	%rcx,%rbp
.Lc267:
	leaq	-32(%rsp),%rsp
.seh_stackalloc 32
.seh_endprologue
# [150] begin
	leaq	-8(%rbp),%rcx
	call	fpc_ansistr_decr_ref
	nop
	leaq	32(%rsp),%rsp
	popq	%rbp
	ret
.seh_endproc
.Lc264:

.section .text.n_system_$$_int_write_to_console$ansistring,"x"
	.balign 16,0x90
SYSTEM_$$_INT_WRITE_TO_CONSOLE$ANSISTRING:
.Lc268:
.seh_proc SYSTEM_$$_INT_WRITE_TO_CONSOLE$ANSISTRING
	pushq	%rbp
.seh_pushreg %rbp
.Lc270:
.Lc271:
	movq	%rsp,%rbp
.Lc272:
	leaq	-64(%rsp),%rsp
.seh_stackalloc 64
.seh_endprologue
# Var s located at rbp-8, size=OS_64
# Var d located at rbp-12, size=OS_32
	movq	%rcx,-8(%rbp)
	call	fpc_ansistr_incr_ref
.Lj579:
	nop
.Lj575:
# [151] WriteConsoleA(StdOut, @s[1], length(s), @d, nil);
	movq	$0,32(%rsp)
	movq	-8(%rbp),%rax
	testq	%rax,%rax
	je	.Lj580
	movq	-8(%rax),%rax
.Lj580:
	movl	%eax,%r8d
	leaq	-12(%rbp),%r9
	movq	-8(%rbp),%rdx
	movq	U_$SYSTEM_$$_STDOUT(%rip),%rcx
	call	_$dll$kernel32$WriteConsoleA
.Lj577:
	nop
.Lj576:
	movq	%rbp,%rcx
	call	SYSTEM$_$INT_WRITE_TO_CONSOLE$ANSISTRING_$$_fin$0000024E
	nop
	leaq	(%rbp),%rsp
	popq	%rbp
	ret
.seh_handler __FPC_specific_handler,@unwind
.seh_handlerdata
	.long	1
	.long	0
	.rva	.Lj575
	.rva	.Lj576
	.rva	SYSTEM$_$INT_WRITE_TO_CONSOLE$ANSISTRING_$$_fin$0000024E

.section .text.n_system_$$_int_write_to_console$ansistring,"x"
.seh_endproc
.Lc269:

.section .text.n_system$_$int_read_from_console$ansistring_$$_fin$00000250,"x"
	.balign 16,0x90
SYSTEM$_$INT_READ_FROM_CONSOLE$ANSISTRING_$$_fin$00000250:
.Lc273:
.seh_proc SYSTEM$_$INT_READ_FROM_CONSOLE$ANSISTRING_$$_fin$00000250
# [171] end;
	pushq	%rbp
.seh_pushreg %rbp
.Lc275:
.Lc276:
	movq	%rcx,%rbp
.Lc277:
	leaq	-32(%rsp),%rsp
.seh_stackalloc 32
.seh_endprologue
	leaq	-16(%rbp),%rcx
	call	fpc_ansistr_decr_ref
# [159] begin
	leaq	-24(%rbp),%rcx
	call	fpc_ansistr_decr_ref
	nop
	leaq	32(%rsp),%rsp
	popq	%rbp
	ret
.seh_endproc
.Lc274:

.section .text.n_system_$$_int_read_from_console$ansistring,"x"
	.balign 16,0x90
SYSTEM_$$_INT_READ_FROM_CONSOLE$ANSISTRING:
.Lc278:
# Temps allocated between rbp-32 and rbp-16
.seh_proc SYSTEM_$$_INT_READ_FROM_CONSOLE$ANSISTRING
	pushq	%rbp
.seh_pushreg %rbp
.Lc280:
.Lc281:
	movq	%rsp,%rbp
.Lc282:
	leaq	-80(%rsp),%rsp
.seh_stackalloc 80
	movq	%rbx,-32(%rbp)
.seh_savereg %rbx, 48
.seh_endprologue
# Var c located at rbp-4, size=OS_8
# Var d located at rbp-8, size=OS_32
# Var s located at rbp-16, size=OS_64
	movq	%rcx,%rbx
# Var r located in register rbx
	movq	$0,(%rbx)
	movq	$0,-16(%rbp)
	movq	$0,-24(%rbp)
.Lj589:
	nop
.Lj585:
# [160] s := '';
	leaq	-16(%rbp),%rcx
	xorl	%edx,%edx
	call	fpc_ansistr_assign
	.balign 8,0x90
.Lj590:
# [162] ReadConsoleA(StdIn, @c, 1, @d, nil);
	movq	$0,32(%rsp)
	leaq	-8(%rbp),%r9
	leaq	-4(%rbp),%rdx
	movq	U_$SYSTEM_$$_STDIN(%rip),%rcx
	movl	$1,%r8d
	call	_$dll$kernel32$ReadConsoleA
# [163] if c = #13 then begin
	cmpb	$13,-4(%rbp)
	je	.Lj592
	.balign 4,0x90
# [167] s := s + c;
	movzbl	-4(%rbp),%edx
	xorl	%r8d,%r8d
	leaq	-24(%rbp),%rcx
	call	fpc_char_to_ansistr
	movq	-24(%rbp),%r8
	movq	-16(%rbp),%rdx
	leaq	-16(%rbp),%rcx
	xorl	%r9d,%r9d
	call	fpc_ansistr_concat
# [161] while true do begin
	jmp	.Lj590
.Lj592:
# [169] r := s;
	movq	%rbx,%rcx
	movq	-16(%rbp),%rdx
	call	fpc_ansistr_assign
# [170] int_write_to_console(#13#10);
	leaq	.Ld20(%rip),%rcx
	call	SYSTEM_$$_INT_WRITE_TO_CONSOLE$ANSISTRING
.Lj587:
	nop
.Lj586:
	movq	%rbp,%rcx
	call	SYSTEM$_$INT_READ_FROM_CONSOLE$ANSISTRING_$$_fin$00000250
	movq	-32(%rbp),%rbx
	leaq	(%rbp),%rsp
	popq	%rbp
	ret
.seh_handler __FPC_specific_handler,@unwind
.seh_handlerdata
	.long	1
	.long	0
	.rva	.Lj585
	.rva	.Lj586
	.rva	SYSTEM$_$INT_READ_FROM_CONSOLE$ANSISTRING_$$_fin$00000250

.section .text.n_system_$$_int_read_from_console$ansistring,"x"
.seh_endproc
.Lc279:

.section .text.n_fpc_readln_end,"x"
	.balign 16,0x90
.globl	fpc_readln_end
fpc_readln_end:
.globl	FPC_READLN_END
FPC_READLN_END:
.Lc283:
# [174] begin
	movq	%rcx,%rax
# Var f located in register rax
# [181] end;
	ret
.Lc284:

.section .text.n_system$_$fpc_read_text_shortstr$text$shortstring$longword_$$_fin$00000254,"x"
	.balign 16,0x90
SYSTEM$_$FPC_READ_TEXT_SHORTSTR$TEXT$SHORTSTRING$LONGWORD_$$_fin$00000254:
.Lc285:
.seh_proc SYSTEM$_$FPC_READ_TEXT_SHORTSTR$TEXT$SHORTSTRING$LONGWORD_$$_fin$00000254
# [189] end;
	pushq	%rbp
.seh_pushreg %rbp
.Lc287:
.Lc288:
	movq	%rcx,%rbp
.Lc289:
	leaq	-32(%rsp),%rsp
.seh_stackalloc 32
.seh_endprologue
	leaq	-8(%rbp),%rcx
	call	fpc_ansistr_decr_ref
# [186] begin
	nop
	leaq	32(%rsp),%rsp
	popq	%rbp
	ret
.seh_endproc
.Lc286:

.section .text.n_fpc_read_text_shortstr,"x"
	.balign 16,0x90
.globl	fpc_read_text_shortstr
fpc_read_text_shortstr:
.globl	FPC_READ_TEXT_SHORTSTR
FPC_READ_TEXT_SHORTSTR:
.Lc290:
# Temps allocated between rbp-24 and rbp-8
.seh_proc fpc_read_text_shortstr
	pushq	%rbp
.seh_pushreg %rbp
.Lc292:
.Lc293:
	movq	%rsp,%rbp
.Lc294:
	leaq	-64(%rsp),%rsp
.seh_stackalloc 64
	movq	%rbx,-24(%rbp)
	movq	%rsi,-16(%rbp)
.seh_savereg %rbx, 40
.seh_savereg %rsi, 48
.seh_endprologue
# Var t located at rbp-8, size=OS_64
	movq	%rcx,%rax
# Var f located in register rax
	movq	%rdx,%rbx
# Var s located in register rbx
# Var cp located in register r8d
	movq	$0,-8(%rbp)
.Lj605:
	nop
.Lj601:
# [187] int_read_from_console(t);
	leaq	-8(%rbp),%rsi
	movq	%rsi,%rcx
	call	fpc_ansistr_decr_ref
	movq	%rsi,%rcx
	call	SYSTEM_$$_INT_READ_FROM_CONSOLE$ANSISTRING
# [188] s := t;
	movq	%rbx,%rcx
	movq	-8(%rbp),%rdx
	call	fpc_ansistr_to_shortstr
.Lj603:
	nop
.Lj602:
	movq	%rbp,%rcx
	call	SYSTEM$_$FPC_READ_TEXT_SHORTSTR$TEXT$SHORTSTRING$LONGWORD_$$_fin$00000254
	movq	-24(%rbp),%rbx
	movq	-16(%rbp),%rsi
	leaq	(%rbp),%rsp
	popq	%rbp
	ret
.seh_handler __FPC_specific_handler,@unwind
.seh_handlerdata
	.long	1
	.long	0
	.rva	.Lj601
	.rva	.Lj602
	.rva	SYSTEM$_$FPC_READ_TEXT_SHORTSTR$TEXT$SHORTSTRING$LONGWORD_$$_fin$00000254

.section .text.n_fpc_read_text_shortstr,"x"
.seh_endproc
.Lc291:

.section .text.n_system$_$fpc_read_text_ansistr$text$rawbytestring$longword_$$_fin$00000256,"x"
	.balign 16,0x90
SYSTEM$_$fpc_read_text_ansistr$TEXT$RAWBYTESTRING$LONGWORD_$$_fin$00000256:
.Lc295:
.seh_proc SYSTEM$_$fpc_read_text_ansistr$TEXT$RAWBYTESTRING$LONGWORD_$$_fin$00000256
# [197] end;
	pushq	%rbp
.seh_pushreg %rbp
.Lc297:
.Lc298:
	movq	%rcx,%rbp
.Lc299:
	leaq	-32(%rsp),%rsp
.seh_stackalloc 32
.seh_endprologue
	leaq	-8(%rbp),%rcx
	call	fpc_ansistr_decr_ref
# [194] begin
	nop
	leaq	32(%rsp),%rsp
	popq	%rbp
	ret
.seh_endproc
.Lc296:

.section .text.n_fpc_read_text_ansistr,"x"
	.balign 16,0x90
.globl	fpc_read_text_ansistr
fpc_read_text_ansistr:
.globl	FPC_READ_TEXT_ANSISTR
FPC_READ_TEXT_ANSISTR:
.Lc300:
# Temps allocated between rbp-24 and rbp-8
.seh_proc fpc_read_text_ansistr
	pushq	%rbp
.seh_pushreg %rbp
.Lc302:
.Lc303:
	movq	%rsp,%rbp
.Lc304:
	leaq	-64(%rsp),%rsp
.seh_stackalloc 64
	movq	%rbx,-24(%rbp)
	movq	%rsi,-16(%rbp)
.seh_savereg %rbx, 40
.seh_savereg %rsi, 48
.seh_endprologue
# Var t located at rbp-8, size=OS_64
	movq	%rcx,%rax
# Var f located in register rax
	movq	%rdx,%rbx
# Var s located in register rbx
# Var cp located in register r8d
	movq	$0,(%rbx)
	movq	$0,-8(%rbp)
.Lj614:
	nop
.Lj610:
# [195] int_read_from_console(t);
	leaq	-8(%rbp),%rsi
	movq	%rsi,%rcx
	call	fpc_ansistr_decr_ref
	movq	%rsi,%rcx
	call	SYSTEM_$$_INT_READ_FROM_CONSOLE$ANSISTRING
# [196] s := t;
	movq	%rbx,%rcx
	movq	-8(%rbp),%rdx
	call	fpc_ansistr_assign
.Lj612:
	nop
.Lj611:
	movq	%rbp,%rcx
	call	SYSTEM$_$fpc_read_text_ansistr$TEXT$RAWBYTESTRING$LONGWORD_$$_fin$00000256
	movq	-24(%rbp),%rbx
	movq	-16(%rbp),%rsi
	leaq	(%rbp),%rsp
	popq	%rbp
	ret
.seh_handler __FPC_specific_handler,@unwind
.seh_handlerdata
	.long	1
	.long	0
	.rva	.Lj610
	.rva	.Lj611
	.rva	SYSTEM$_$fpc_read_text_ansistr$TEXT$RAWBYTESTRING$LONGWORD_$$_fin$00000256

.section .text.n_fpc_read_text_ansistr,"x"
.seh_endproc
.Lc301:

.section .text.n_system$_$fpc_write_text_sint$longint$text$int64_$$_fin$00000257,"x"
	.balign 16,0x90
SYSTEM$_$fpc_write_text_sint$LONGINT$TEXT$INT64_$$_fin$00000257:
.Lc305:
.seh_proc SYSTEM$_$fpc_write_text_sint$LONGINT$TEXT$INT64_$$_fin$00000257
# [205] end;
	pushq	%rbp
.seh_pushreg %rbp
.Lc307:
.Lc308:
	movq	%rcx,%rbp
.Lc309:
	leaq	-32(%rsp),%rsp
.seh_stackalloc 32
.seh_endprologue
	leaq	-8(%rbp),%rcx
	call	fpc_ansistr_decr_ref
# [202] begin
	nop
	leaq	32(%rsp),%rsp
	popq	%rbp
	ret
.seh_endproc
.Lc306:

.section .text.n_fpc_write_text_sint,"x"
	.balign 16,0x90
.globl	fpc_write_text_sint
fpc_write_text_sint:
.Lc310:
.seh_proc fpc_write_text_sint
	pushq	%rbp
.seh_pushreg %rbp
.Lc312:
.Lc313:
	movq	%rsp,%rbp
.Lc314:
	leaq	-64(%rsp),%rsp
.seh_stackalloc 64
.seh_endprologue
# Var s located at rbp-8, size=OS_64
	movl	%ecx,%eax
# Var len located in register eax
# Var t located in register rdx
	movq	%r8,%rcx
# Var l located in register rcx
	movq	$0,-8(%rbp)
.Lj623:
	nop
.Lj619:
# [203] s := itoa(l);
	movl	$10,%edx
	call	SYSTEM_$$_ITOA$LONGINT$LONGINT$$PANSICHAR
	movq	%rax,%rdx
	leaq	-8(%rbp),%rcx
	xorl	%r8d,%r8d
	call	fpc_pchar_to_ansistr
# [204] WriteConsoleA(StdOut, @s[1], length(s), nil, nil);
	movq	$0,32(%rsp)
	movq	-8(%rbp),%r8
	testq	%r8,%r8
	je	.Lj624
	movq	-8(%r8),%r8
.Lj624:
	movq	-8(%rbp),%rdx
	movq	U_$SYSTEM_$$_STDOUT(%rip),%rcx
	xorq	%r9,%r9
	call	_$dll$kernel32$WriteConsoleA
.Lj621:
	nop
.Lj620:
	movq	%rbp,%rcx
	call	SYSTEM$_$fpc_write_text_sint$LONGINT$TEXT$INT64_$$_fin$00000257
	nop
	leaq	(%rbp),%rsp
	popq	%rbp
	ret
.seh_handler __FPC_specific_handler,@unwind
.seh_handlerdata
	.long	1
	.long	0
	.rva	.Lj619
	.rva	.Lj620
	.rva	SYSTEM$_$fpc_write_text_sint$LONGINT$TEXT$INT64_$$_fin$00000257

.section .text.n_fpc_write_text_sint,"x"
.seh_endproc
.Lc311:

.section .text.n_system$_$fpc_write_text_uint$longint$text$qword_$$_fin$00000258,"x"
	.balign 16,0x90
SYSTEM$_$fpc_write_text_uint$LONGINT$TEXT$QWORD_$$_fin$00000258:
.Lc315:
.seh_proc SYSTEM$_$fpc_write_text_uint$LONGINT$TEXT$QWORD_$$_fin$00000258
# [213] end;
	pushq	%rbp
.seh_pushreg %rbp
.Lc317:
.Lc318:
	movq	%rcx,%rbp
.Lc319:
	leaq	-32(%rsp),%rsp
.seh_stackalloc 32
.seh_endprologue
	leaq	-8(%rbp),%rcx
	call	fpc_ansistr_decr_ref
# [210] begin
	nop
	leaq	32(%rsp),%rsp
	popq	%rbp
	ret
.seh_endproc
.Lc316:

.section .text.n_fpc_write_text_uint,"x"
	.balign 16,0x90
.globl	fpc_write_text_uint
fpc_write_text_uint:
.Lc320:
.seh_proc fpc_write_text_uint
	pushq	%rbp
.seh_pushreg %rbp
.Lc322:
.Lc323:
	movq	%rsp,%rbp
.Lc324:
	leaq	-64(%rsp),%rsp
.seh_stackalloc 64
.seh_endprologue
# Var s located at rbp-8, size=OS_64
	movl	%ecx,%eax
# Var len located in register eax
# Var t located in register rdx
	movq	%r8,%rcx
# Var l located in register rcx
	movq	$0,-8(%rbp)
.Lj633:
	nop
.Lj629:
# [211] s := itoa(l);
	movl	$10,%edx
	call	SYSTEM_$$_ITOA$LONGINT$LONGINT$$PANSICHAR
	movq	%rax,%rdx
	leaq	-8(%rbp),%rcx
	xorl	%r8d,%r8d
	call	fpc_pchar_to_ansistr
# [212] WriteConsoleA(StdOut, @s[1], length(s), nil, nil);
	movq	$0,32(%rsp)
	movq	-8(%rbp),%r8
	testq	%r8,%r8
	je	.Lj634
	movq	-8(%r8),%r8
.Lj634:
	movq	-8(%rbp),%rdx
	movq	U_$SYSTEM_$$_STDOUT(%rip),%rcx
	xorq	%r9,%r9
	call	_$dll$kernel32$WriteConsoleA
.Lj631:
	nop
.Lj630:
	movq	%rbp,%rcx
	call	SYSTEM$_$fpc_write_text_uint$LONGINT$TEXT$QWORD_$$_fin$00000258
	nop
	leaq	(%rbp),%rsp
	popq	%rbp
	ret
.seh_handler __FPC_specific_handler,@unwind
.seh_handlerdata
	.long	1
	.long	0
	.rva	.Lj629
	.rva	.Lj630
	.rva	SYSTEM$_$fpc_write_text_uint$LONGINT$TEXT$QWORD_$$_fin$00000258

.section .text.n_fpc_write_text_uint,"x"
.seh_endproc
.Lc321:

.section .text.n_system$_$fpc_write_text_qword$longint$text$qword_$$_fin$00000259,"x"
	.balign 16,0x90
SYSTEM$_$fpc_write_text_qword$LONGINT$TEXT$QWORD_$$_fin$00000259:
.Lc325:
.seh_proc SYSTEM$_$fpc_write_text_qword$LONGINT$TEXT$QWORD_$$_fin$00000259
# [223] end;
	pushq	%rbp
.seh_pushreg %rbp
.Lc327:
.Lc328:
	movq	%rcx,%rbp
.Lc329:
	leaq	-32(%rsp),%rsp
.seh_stackalloc 32
.seh_endprologue
	leaq	-8(%rbp),%rcx
	call	fpc_ansistr_decr_ref
# [220] begin
	nop
	leaq	32(%rsp),%rsp
	popq	%rbp
	ret
.seh_endproc
.Lc326:

.section .text.n_fpc_write_text_qword,"x"
	.balign 16,0x90
.globl	fpc_write_text_qword
fpc_write_text_qword:
.Lc330:
.seh_proc fpc_write_text_qword
	pushq	%rbp
.seh_pushreg %rbp
.Lc332:
.Lc333:
	movq	%rsp,%rbp
.Lc334:
	leaq	-64(%rsp),%rsp
.seh_stackalloc 64
.seh_endprologue
# Var s located at rbp-8, size=OS_64
	movl	%ecx,%eax
# Var len located in register eax
# Var t located in register rdx
	movq	%r8,%rcx
# Var q located in register rcx
	movq	$0,-8(%rbp)
.Lj643:
	nop
.Lj639:
# [221] s := itoa(q); // @@todo: itoa64 / signed / unsigned
	movl	$10,%edx
	call	SYSTEM_$$_ITOA$LONGINT$LONGINT$$PANSICHAR
	movq	%rax,%rdx
	leaq	-8(%rbp),%rcx
	xorl	%r8d,%r8d
	call	fpc_pchar_to_ansistr
# [222] WriteConsoleA(StdOut, @s[1], length(s), nil, nil);
	movq	$0,32(%rsp)
	movq	-8(%rbp),%r8
	testq	%r8,%r8
	je	.Lj644
	movq	-8(%r8),%r8
.Lj644:
	movq	-8(%rbp),%rdx
	movq	U_$SYSTEM_$$_STDOUT(%rip),%rcx
	xorq	%r9,%r9
	call	_$dll$kernel32$WriteConsoleA
.Lj641:
	nop
.Lj640:
	movq	%rbp,%rcx
	call	SYSTEM$_$fpc_write_text_qword$LONGINT$TEXT$QWORD_$$_fin$00000259
	nop
	leaq	(%rbp),%rsp
	popq	%rbp
	ret
.seh_handler __FPC_specific_handler,@unwind
.seh_handlerdata
	.long	1
	.long	0
	.rva	.Lj639
	.rva	.Lj640
	.rva	SYSTEM$_$fpc_write_text_qword$LONGINT$TEXT$QWORD_$$_fin$00000259

.section .text.n_fpc_write_text_qword,"x"
.seh_endproc
.Lc331:

.section .text.n_system$_$fpc_write_text_boolean$longint$text$boolean_$$_fin$0000025a,"x"
	.balign 16,0x90
SYSTEM$_$fpc_write_text_boolean$LONGINT$TEXT$BOOLEAN_$$_fin$0000025A:
.Lc335:
.seh_proc SYSTEM$_$fpc_write_text_boolean$LONGINT$TEXT$BOOLEAN_$$_fin$0000025A
# [232] end;
	pushq	%rbp
.seh_pushreg %rbp
.Lc337:
.Lc338:
	movq	%rcx,%rbp
.Lc339:
	leaq	-32(%rsp),%rsp
.seh_stackalloc 32
.seh_endprologue
	leaq	-8(%rbp),%rcx
	call	fpc_ansistr_decr_ref
# [228] begin
	nop
	leaq	32(%rsp),%rsp
	popq	%rbp
	ret
.seh_endproc
.Lc336:

.section .text.n_fpc_write_text_boolean,"x"
	.balign 16,0x90
.globl	fpc_write_text_boolean
fpc_write_text_boolean:
.Lc340:
.seh_proc fpc_write_text_boolean
	pushq	%rbp
.seh_pushreg %rbp
.Lc342:
.Lc343:
	movq	%rsp,%rbp
.Lc344:
	leaq	-64(%rsp),%rsp
.seh_stackalloc 64
.seh_endprologue
# Var s located at rbp-8, size=OS_64
	movl	%ecx,%eax
# Var len located in register eax
# Var t located in register rdx
# Var b located in register r8b
	movq	$0,-8(%rbp)
.Lj653:
	nop
.Lj649:
# [230] if b then s := 'TRUE' else s := 'FALSE';
	testb	%r8b,%r8b
	je	.Lj655
	leaq	-8(%rbp),%rcx
	leaq	.Ld21(%rip),%rdx
	call	fpc_ansistr_assign
	jmp	.Lj656
.Lj655:
	leaq	-8(%rbp),%rcx
	leaq	.Ld22(%rip),%rdx
	call	fpc_ansistr_assign
.Lj656:
# [231] WriteConsoleA(StdOut, @s[1], length(s), nil, nil);
	movq	$0,32(%rsp)
	movq	-8(%rbp),%r8
	testq	%r8,%r8
	je	.Lj657
	movq	-8(%r8),%r8
.Lj657:
	movq	-8(%rbp),%rdx
	movq	U_$SYSTEM_$$_STDOUT(%rip),%rcx
	xorq	%r9,%r9
	call	_$dll$kernel32$WriteConsoleA
.Lj651:
	nop
.Lj650:
	movq	%rbp,%rcx
	call	SYSTEM$_$fpc_write_text_boolean$LONGINT$TEXT$BOOLEAN_$$_fin$0000025A
	nop
	leaq	(%rbp),%rsp
	popq	%rbp
	ret
.seh_handler __FPC_specific_handler,@unwind
.seh_handlerdata
	.long	1
	.long	0
	.rva	.Lj649
	.rva	.Lj650
	.rva	SYSTEM$_$fpc_write_text_boolean$LONGINT$TEXT$BOOLEAN_$$_fin$0000025A

.section .text.n_fpc_write_text_boolean,"x"
.seh_endproc
.Lc341:

.section .text.n_fpc_shortstr_setlength,"x"
	.balign 16,0x90
.globl	fpc_shortstr_setlength
fpc_shortstr_setlength:
.globl	FPC_SHORTSTR_SETLENGTH
FPC_SHORTSTR_SETLENGTH:
.Lc345:
# [strings.inc]
# [102] begin
	movq	%rcx,%rax
# Var s located in register rax
# Var len located in register rdx
# [103] if len > 255 then len := 255;
	cmpq	$255,%rdx
	jng	.Lj661
	movl	$255,%edx
	.balign 4,0x90
.Lj661:
# [104] s[0] := chr(len);
	movb	%dl,(%rax)
# [105] end;
	ret
.Lc346:

.section .text.n_system_$$_fpcshortstrtoansistr$shortstring$longword$$rawbytestring,"x"
	.balign 16,0x90
.globl	SYSTEM_$$_FPCSHORTSTRTOANSISTR$SHORTSTRING$LONGWORD$$RAWBYTESTRING
SYSTEM_$$_FPCSHORTSTRTOANSISTR$SHORTSTRING$LONGWORD$$RAWBYTESTRING:
.Lc347:
.seh_proc SYSTEM_$$_FPCSHORTSTRTOANSISTR$SHORTSTRING$LONGWORD$$RAWBYTESTRING
# [111] begin
	pushq	%rbx
.seh_pushreg %rbx
	pushq	%rdi
.seh_pushreg %rdi
	pushq	%rsi
.seh_pushreg %rsi
	leaq	-32(%rsp),%rsp
.Lc349:
.seh_stackalloc 32
.seh_endprologue
# Var len located in register eax
	movq	%rcx,%rbx
# Var $result located in register rbx
	movq	%rdx,%rsi
# Var s2 located in register rsi
# Var cp located in register r8d
# [112] len := length(s2);
	movzbl	(%rsi),%edi
# Var len located in register edi
# [113] setlength(result, len);
	movslq	%edi,%rdx
	movq	%rbx,%rcx
	xorl	%r8d,%r8d
	call	fpc_ansistr_setlength
# [114] move(s2[1], result[1], len);
	movq	%rbx,%rcx
	call	fpc_ansistr_unique
	movq	%rax,%rdx
	movslq	%edi,%r8
	leaq	1(%rsi),%rcx
	call	SYSTEM_$$_MOVE$formal$formal$QWORD
# [115] end;
	nop
	leaq	32(%rsp),%rsp
	popq	%rsi
	popq	%rdi
	popq	%rbx
	ret
.seh_endproc
.Lc348:

.section .text.n_fpc_shortstr_to_ansistr,"x"
	.balign 16,0x90
.globl	fpc_shortstr_to_ansistr
fpc_shortstr_to_ansistr:
.Lc350:
.seh_proc fpc_shortstr_to_ansistr
# [117] begin
	leaq	-40(%rsp),%rsp
.Lc352:
.seh_stackalloc 40
.seh_endprologue
# Var $result located in register rax
# Var s2 located in register rdx
# Var cp located in register r8d
# Var cp located in register r8d
# [118] result := fpcshortstrtoansistr(s2,cp);
	call	SYSTEM_$$_FPCSHORTSTRTOANSISTR$SHORTSTRING$LONGWORD$$RAWBYTESTRING
# [119] end;
	nop
	leaq	40(%rsp),%rsp
	ret
.seh_endproc
.Lc351:

.section .text.n_system_$$_fpc_shortstr_toshortstr$shortstring$shortstring,"x"
	.balign 16,0x90
.globl	SYSTEM_$$_FPC_SHORTSTR_TOSHORTSTR$SHORTSTRING$SHORTSTRING
SYSTEM_$$_FPC_SHORTSTR_TOSHORTSTR$SHORTSTRING$SHORTSTRING:
.Lc353:
.seh_proc SYSTEM_$$_FPC_SHORTSTR_TOSHORTSTR$SHORTSTRING$SHORTSTRING
# [133] begin
	pushq	%rbx
.seh_pushreg %rbx
	pushq	%rdi
.seh_pushreg %rdi
	pushq	%rsi
.seh_pushreg %rsi
	leaq	-32(%rsp),%rsp
.Lc355:
.seh_stackalloc 32
.seh_endprologue
# Var l located in register eax
	movq	%rcx,%rbx
# Var res located in register rbx
	movq	%rdx,%rsi
# Var sstr located in register rsi
# [134] l := pbyte(@sstr[0])^;
	movq	%rsi,%rax
	movzbl	(%rax),%edi
# Var l located in register edi
# [135] setlength(res, l);
	movl	%edi,%edx
	movq	%rbx,%rcx
	call	fpc_shortstr_setlength
# [136] move(sstr[1], res[1], l);
	movl	%edi,%r8d
	leaq	1(%rbx),%rdx
	leaq	1(%rsi),%rcx
	call	SYSTEM_$$_MOVE$formal$formal$QWORD
# [137] end;
	nop
	leaq	32(%rsp),%rsp
	popq	%rsi
	popq	%rdi
	popq	%rbx
	ret
.seh_endproc
.Lc354:

.section .text.n_fpc_shortstr_to_shortstr,"x"
	.balign 16,0x90
.globl	fpc_shortstr_to_shortstr
fpc_shortstr_to_shortstr:
.globl	FPC_SHORTSTR_TO_SHORTSTR
FPC_SHORTSTR_TO_SHORTSTR:
.Lc356:
.seh_proc fpc_shortstr_to_shortstr
# [139] begin
	leaq	-40(%rsp),%rsp
.Lc358:
.seh_stackalloc 40
.seh_endprologue
# Var res located in register rax
# Var sstr located in register rdx
# [140] fpc_shortstr_toshortstr(res, sstr);
	call	SYSTEM_$$_FPC_SHORTSTR_TOSHORTSTR$SHORTSTRING$SHORTSTRING
# [141] end;
	nop
	leaq	40(%rsp),%rsp
	ret
.seh_endproc
.Lc357:

.section .text.n_fpc_val_sint_shortstr,"x"
	.balign 16,0x90
.globl	fpc_val_sint_shortstr
fpc_val_sint_shortstr:
.globl	FPC_VAL_SINT_SHORTSTR
FPC_VAL_SINT_SHORTSTR:
.Lc359:
.seh_proc fpc_val_sint_shortstr
# [152] begin
	pushq	%rbx
.seh_pushreg %rbx
	leaq	-32(%rsp),%rsp
.Lc361:
.seh_stackalloc 32
.seh_endprologue
# Var $result located in register rax
# Var destsize located in register rcx
# Var s located in register rdx
# Var code located in register r8
# [153] writeln('fpc_val_sint_shortstr');
	call	fpc_get_output
	movq	%rax,%rbx
	leaq	_$SYSTEM$_Ld23(%rip),%r8
	movq	%rbx,%rdx
	xorl	%ecx,%ecx
	call	fpc_write_text_shortstr
	movq	%rbx,%rcx
	call	fpc_writeln_end
# [154] end;
	nop
	leaq	32(%rsp),%rsp
	popq	%rbx
	ret
.seh_endproc
.Lc360:

.section .text.n_fpc_shortstr_sint,"x"
	.balign 16,0x90
.globl	fpc_shortstr_sint
fpc_shortstr_sint:
.globl	FPC_SHORTSTR_SINT
FPC_SHORTSTR_SINT:
.Lc362:
.seh_proc fpc_shortstr_sint
# [157] begin
	pushq	%rbx
.seh_pushreg %rbx
	leaq	-32(%rsp),%rsp
.Lc364:
.seh_stackalloc 32
.seh_endprologue
	movq	%rcx,%rax
# Var v located in register rax
# Var len located in register rdx
# Var s located in register r8
# [158] writeln('fpc_shortstr_sint');
	call	fpc_get_output
	movq	%rax,%rbx
	leaq	_$SYSTEM$_Ld24(%rip),%r8
	movq	%rbx,%rdx
	xorl	%ecx,%ecx
	call	fpc_write_text_shortstr
	movq	%rbx,%rcx
	call	fpc_writeln_end
# [159] end;
	nop
	leaq	32(%rsp),%rsp
	popq	%rbx
	ret
.seh_endproc
.Lc363:

.section .text.n_fpc_ansistr_to_shortstr,"x"
	.balign 16,0x90
.globl	fpc_ansistr_to_shortstr
fpc_ansistr_to_shortstr:
.globl	FPC_ANSISTR_TO_SHORTSTR
FPC_ANSISTR_TO_SHORTSTR:
.Lc365:
.seh_proc fpc_ansistr_to_shortstr
# [162] begin
	pushq	%rbx
.seh_pushreg %rbx
	pushq	%rsi
.seh_pushreg %rsi
	leaq	-40(%rsp),%rsp
.Lc367:
.seh_stackalloc 40
.seh_endprologue
	movq	%rcx,%rbx
# Var res located in register rbx
	movq	%rdx,%rsi
# Var s2 located in register rsi
# [163] setlength(res, length(s2));
	testq	%rdx,%rdx
	je	.Lj676
	movq	-8(%rdx),%rdx
.Lj676:
	movq	%rbx,%rcx
	call	fpc_shortstr_setlength
# [164] move(s2[1], res[1], length(s2));
	movq	%rsi,%r8
	testq	%rsi,%rsi
	je	.Lj677
	movq	-8(%r8),%r8
.Lj677:
	leaq	1(%rbx),%rdx
	movq	%rsi,%rcx
	call	SYSTEM_$$_MOVE$formal$formal$QWORD
# [165] end;
	nop
	leaq	40(%rsp),%rsp
	popq	%rsi
	popq	%rbx
	ret
.seh_endproc
.Lc366:

.section .text.n_system_$$_fpcshortstrconcat$shortstring$shortstring$shortstring,"x"
	.balign 16,0x90
.globl	SYSTEM_$$_FPCSHORTSTRCONCAT$SHORTSTRING$SHORTSTRING$SHORTSTRING
SYSTEM_$$_FPCSHORTSTRCONCAT$SHORTSTRING$SHORTSTRING$SHORTSTRING:
.Lc368:
.seh_proc SYSTEM_$$_FPCSHORTSTRCONCAT$SHORTSTRING$SHORTSTRING$SHORTSTRING
# [171] begin
	pushq	%rbx
.seh_pushreg %rbx
	pushq	%rdi
.seh_pushreg %rdi
	pushq	%rsi
.seh_pushreg %rsi
	pushq	%r12
.seh_pushreg %r12
	pushq	%r13
.seh_pushreg %r13
	pushq	%r14
.seh_pushreg %r14
	leaq	-40(%rsp),%rsp
.Lc370:
.seh_stackalloc 40
.seh_endprologue
# Var len located in register eax
# Var cap located in register eax
# Var m located in register r14d
	movq	%rcx,%rbx
# Var dests located in register rbx
	movq	%rdx,%rsi
# Var s1 located in register rsi
	movq	%r8,%rdi
# Var s2 located in register rdi
# Var len located in register eax
# [172] len := 0;
	xorl	%eax,%eax
# Var cap located in register r12d
# [173] cap := 255;
	movl	$255,%r12d
# [175] move(s1[1], dests[1], length(s1));
	movzbl	(%rsi),%r8d
	leaq	1(%rbx),%rdx
	leaq	1(%rsi),%rcx
	call	SYSTEM_$$_MOVE$formal$formal$QWORD
# [176] len := length(s1);
	movzbl	(%rsi),%r13d
# Var len located in register r13d
# [178] dec(cap, length(s1));
	movzbl	(%rsi),%eax
	subl	%eax,%r12d
# [179] if cap > 0 then begin
	testl	%r12d,%r12d
	jng	.Lj681
# [181] m := length(s2);
	movzbl	(%rdi),%r14d
# [182] if m > cap then m := cap;
	cmpl	%r14d,%r12d
	cmovll	%r12d,%r14d
# [183] move(s2[1], dests[length(s1)+1], m);
	movzbl	(%rsi),%eax
	addl	$1,%eax
	andl	$255,%eax
	leaq	(%rbx,%rax,1),%rdx
	movslq	%r14d,%r8
	leaq	1(%rdi),%rcx
	call	SYSTEM_$$_MOVE$formal$formal$QWORD
# [184] inc(len, m);
	addl	%r14d,%r13d
	.balign 4,0x90
.Lj681:
# [187] dests[0] := chr(len);
	movb	%r13b,(%rbx)
# [188] end;
	nop
	leaq	40(%rsp),%rsp
	popq	%r14
	popq	%r13
	popq	%r12
	popq	%rsi
	popq	%rdi
	popq	%rbx
	ret
.seh_endproc
.Lc369:

.section .text.n_fpc_shortstr_concat,"x"
	.balign 16,0x90
.globl	fpc_shortstr_concat
fpc_shortstr_concat:
.Lc371:
.seh_proc fpc_shortstr_concat
# [190] begin
	leaq	-40(%rsp),%rsp
.Lc373:
.seh_stackalloc 40
.seh_endprologue
# Var dests located in register rax
# Var s1 located in register rdx
# Var s2 located in register r8
# [191] fpcshortstrconcat(dests, s1, s2);
	call	SYSTEM_$$_FPCSHORTSTRCONCAT$SHORTSTRING$SHORTSTRING$SHORTSTRING
# [192] end;
	nop
	leaq	40(%rsp),%rsp
	ret
.seh_endproc
.Lc372:

.section .text.n_system_$$_fpcshortstrcopy$shortstring$int64$int64$$shortstring,"x"
	.balign 16,0x90
.globl	SYSTEM_$$_FPCSHORTSTRCOPY$SHORTSTRING$INT64$INT64$$SHORTSTRING
SYSTEM_$$_FPCSHORTSTRCOPY$SHORTSTRING$INT64$INT64$$SHORTSTRING:
.Lc374:
.seh_proc SYSTEM_$$_FPCSHORTSTRCOPY$SHORTSTRING$INT64$INT64$$SHORTSTRING
# [204] begin
	leaq	-40(%rsp),%rsp
.Lc376:
.seh_stackalloc 40
.seh_endprologue
	movq	%rcx,%rax
# Var $result located in register rax
# Var s located in register rdx
	movq	%r8,%rcx
# Var index located in register rcx
	movq	%r9,%r8
# Var count located in register r8
# [205] if count < 0 then count := 0;
	testq	%r8,%r8
	jnl	.Lj689
	xorq	%r8,%r8
	.balign 4,0x90
.Lj689:
# [206] if index > 1 then dec(index) else index := 0;
	cmpq	$1,%rcx
	jng	.Lj691
	subq	$1,%rcx
	jmp	.Lj692
.Lj691:
	xorl	%ecx,%ecx
.Lj692:
# [207] if index > length(s) then
	movzbl	(%rdx),%r9d
	cmpq	%rcx,%r9
	jnl	.Lj694
# [208] count := 0
	xorq	%r8,%r8
	jmp	.Lj695
.Lj694:
# [209] else if count > length(s)-index then
	movzbl	(%rdx),%r9d
	subq	%rcx,%r9
	cmpq	%r8,%r9
	jnl	.Lj697
# [210] count := length(s)-index;
	movzbl	(%rdx),%r9d
	subq	%rcx,%r9
	movq	%r9,%r8
	.balign 4,0x90
.Lj697:
.Lj695:
# [211] result[0] := chr(count);
	movb	%r8b,(%rax)
# [212] move(s[index+1], result[1], count);
	addq	$1,%rcx
	andl	$255,%ecx
	addq	%rdx,%rcx
	leaq	1(%rax),%rdx
# Var count located in register r8
	call	SYSTEM_$$_MOVE$formal$formal$QWORD
# [213] end;
	nop
	leaq	40(%rsp),%rsp
	ret
.seh_endproc
.Lc375:

.section .text.n_fpc_shortstr_copy,"x"
	.balign 16,0x90
.globl	fpc_shortstr_copy
fpc_shortstr_copy:
.Lc377:
.seh_proc fpc_shortstr_copy
# [215] begin
	leaq	-40(%rsp),%rsp
.Lc379:
.seh_stackalloc 40
.seh_endprologue
# Var $result located in register rax
# Var s located in register rdx
# Var index located in register r8
# Var count located in register r9
# Var count located in register r9
# Var index located in register r8
# [216] result := fpcshortstrcopy(s, index, count);
	call	SYSTEM_$$_FPCSHORTSTRCOPY$SHORTSTRING$INT64$INT64$$SHORTSTRING
# [217] end;
	nop
	leaq	40(%rsp),%rsp
	ret
.seh_endproc
.Lc378:

.section .text.n_system_$$_fpcansistrassign$pointer$pointer,"x"
	.balign 16,0x90
.globl	SYSTEM_$$_FPCANSISTRASSIGN$POINTER$POINTER
SYSTEM_$$_FPCANSISTRASSIGN$POINTER$POINTER:
.Lc380:
.seh_proc SYSTEM_$$_FPCANSISTRASSIGN$POINTER$POINTER
# [229] begin
	pushq	%rbx
.seh_pushreg %rbx
	pushq	%rsi
.seh_pushreg %rsi
	leaq	-40(%rsp),%rsp
.Lc382:
.seh_stackalloc 40
.seh_endprologue
	movq	%rcx,%rbx
# Var dests located in register rbx
	movq	%rdx,%rsi
# Var s2 located in register rsi
# [230] if dests = s2 then exit;
	cmpq	(%rbx),%rsi
	je	.Lj700
	.balign 4,0x90
# [231] if s2 <> nil then
	testq	%rsi,%rsi
	je	.Lj705
# [232] if PAnsiRec(s2-AnsiFirstOff)^.Ref > 0 then
	cmpq	$0,-16(%rsi)
	jng	.Lj707
# [234] inc(PAnsiRec(s2-AnsiFirstOff)^.Ref);
	addq	$1,-16(%rsi)
	.balign 4,0x90
.Lj707:
	.balign 4,0x90
.Lj705:
# [236] fpc_ansistr_decr_ref(dests);
	movq	%rbx,%rcx
	call	fpc_ansistr_decr_ref
# Var s2 located in register rsi
# [238] dests := s2;
	movq	%rsi,(%rbx)
.Lj700:
# [239] end;
	nop
	leaq	40(%rsp),%rsp
	popq	%rsi
	popq	%rbx
	ret
.seh_endproc
.Lc381:

.section .text.n_fpc_ansistr_assign,"x"
	.balign 16,0x90
.globl	fpc_ansistr_assign
fpc_ansistr_assign:
.globl	FPC_ANSISTR_ASSIGN
FPC_ANSISTR_ASSIGN:
.Lc383:
.seh_proc fpc_ansistr_assign
# [241] begin
	leaq	-40(%rsp),%rsp
.Lc385:
.seh_stackalloc 40
.seh_endprologue
# Var dests located in register rax
# Var s2 located in register rdx
# Var s2 located in register rdx
# [242] fpcansistrassign(dests, s2);
	call	SYSTEM_$$_FPCANSISTRASSIGN$POINTER$POINTER
# [243] end;
	nop
	leaq	40(%rsp),%rsp
	ret
.seh_endproc
.Lc384:

.section .text.n_system_$$_fpcansistrsetlength$rawbytestring$int64$longword,"x"
	.balign 16,0x90
.globl	SYSTEM_$$_FPCANSISTRSETLENGTH$RAWBYTESTRING$INT64$LONGWORD
SYSTEM_$$_FPCANSISTRSETLENGTH$RAWBYTESTRING$INT64$LONGWORD:
.Lc386:
.seh_proc SYSTEM_$$_FPCANSISTRSETLENGTH$RAWBYTESTRING$INT64$LONGWORD
# [258] begin
	pushq	%rbx
.seh_pushreg %rbx
	pushq	%rdi
.seh_pushreg %rdi
	pushq	%rsi
.seh_pushreg %rsi
	leaq	-48(%rsp),%rsp
.Lc388:
.seh_stackalloc 48
.seh_endprologue
# Var Temp located at rsp+32, size=OS_64
# Var lens located in register rdi
# Var lena located in register rax
	movq	%rcx,%rbx
# Var S located in register rbx
	movq	%rdx,%rsi
# Var l located in register rsi
	movl	%r8d,%edi
# Var cp located in register edi
# [259] if (l > 0) then begin
	testq	%rsi,%rsi
	jng	.Lj713
# [260] if Pointer(S) = nil then begin
	cmpq	$0,(%rbx)
	jne	.Lj715
# [261] Pointer(S) := new_ansistring(L);
	movq	%rsi,%rcx
	call	SYSTEM_$$_NEW_ANSISTRING$INT64$$POINTER
	movq	%rax,(%rbx)
# [263] cp := 0;
	xorl	%edi,%edi
# [264] PAnsiRec(Pointer(S) - AnsiFirstOff)^.CodePage := cp;
	movq	(%rbx),%rax
	movl	%edi,-32(%rax)
	jmp	.Lj716
.Lj715:
# [265] end else if PAnsiRec(Pointer(S) - AnsiFirstOff)^.Ref = 1 then begin
	movq	(%rbx),%rax
	cmpq	$1,-16(%rax)
	jne	.Lj718
# [266] Temp := Pointer(s) - AnsiFirstOff;
	movq	(%rbx),%rax
	subq	$32,%rax
	movq	%rax,32(%rsp)
# [268] lens := 4;
	movl	$4,%edi
# [269] lena := AnsiFirstOff + L + sizeof(ansichar);
	leaq	32(%rsi),%rax
	addq	$1,%rax
# [271] if (lena > lens) or ((lens > 32) and (lena <= SizeInt(SizeUint(lens) div 2))) then pointer(s) := xreallocmem(temp, 4) + AnsiFirstOff;
	cmpq	%rax,%rdi
	jl	.Lj719
	cmpq	$32,%rdi
	jng	.Lj725
	movq	%rdi,%rdx
	shrq	$1,%rdx
	cmpq	%rax,%rdx
	jnge	.Lj725
.Lj719:
	leaq	32(%rsp),%rcx
	movl	$4,%edx
	call	XMM_$$_XREALLOCMEM$POINTER$QWORD$$POINTER
	addq	$32,%rax
	movq	%rax,(%rbx)
	.balign 4,0x90
	jmp	.Lj725
.Lj718:
# [274] Temp := new_ansistring(4);
	movl	$4,%ecx
	call	SYSTEM_$$_NEW_ANSISTRING$INT64$$POINTER
	movq	%rax,32(%rsp)
# [275] PAnsiRec(Pointer(Temp) - AnsiFirstOff)^.CodePage := PAnsiRec(Pointer(S) - AnsiFirstOff)^.CodePage;
	movq	(%rbx),%rax
	movq	32(%rsp),%rdx
	movl	-32(%rax),%eax
	movl	%eax,-32(%rdx)
# [278] lens := PAnsiRec(Pointer(S) - AnsiFirstOff)^.Len + 1;
	movq	(%rbx),%rax
	movq	-8(%rax),%rax
	addq	$1,%rax
	movq	%rax,%rdi
# [279] if l < lens then lens := l;
	cmpq	%rsi,%rdi
	cmovgq	%rsi,%rdi
# [280] Move(Pointer(S)^, Temp^, lens);
	movq	(%rbx),%rcx
	movq	32(%rsp),%rdx
	movq	%rdi,%r8
	call	SYSTEM_$$_MOVE$formal$formal$QWORD
# [281] fpc_ansistr_decr_ref(Pointer(s));
	movq	%rbx,%rcx
	call	fpc_ansistr_decr_ref
# [282] Pointer(S) := Temp;
	movq	32(%rsp),%rax
	movq	%rax,(%rbx)
.Lj725:
.Lj716:
# [285] pbyte(Pointer(S) + l)^ := 0;
	movq	(%rbx),%rax
	addq	%rsi,%rax
	movb	$0,(%rax)
# [286] PAnsiRec(Pointer(S) - AnsiFirstOff)^.Len := l;
	movq	(%rbx),%rax
	movq	%rsi,-8(%rax)
	jmp	.Lj728
.Lj713:
# [288] fpc_ansistr_decr_ref(Pointer(S));
	movq	%rbx,%rcx
	call	fpc_ansistr_decr_ref
.Lj728:
# [289] end;
	nop
	leaq	48(%rsp),%rsp
	popq	%rsi
	popq	%rdi
	popq	%rbx
	ret
.seh_endproc
.Lc387:

.section .text.n_fpc_ansistr_setlength,"x"
	.balign 16,0x90
.globl	fpc_ansistr_setlength
fpc_ansistr_setlength:
.globl	FPC_ANSISTR_SETLENGTH
FPC_ANSISTR_SETLENGTH:
.Lc389:
.seh_proc fpc_ansistr_setlength
# [291] begin
	leaq	-40(%rsp),%rsp
.Lc391:
.seh_stackalloc 40
.seh_endprologue
# Var s located in register rax
# Var l located in register rdx
# Var cp located in register r8d
# Var cp located in register r8d
# Var l located in register rdx
# [292] fpcansistrsetlength(S, l, cp);
	call	SYSTEM_$$_FPCANSISTRSETLENGTH$RAWBYTESTRING$INT64$LONGWORD
# [293] end;
	nop
	leaq	40(%rsp),%rsp
	ret
.seh_endproc
.Lc390:

.section .text.n_system_$$_fpcansistrdecrref$pointer,"x"
	.balign 16,0x90
.globl	SYSTEM_$$_FPCANSISTRDECRREF$POINTER
SYSTEM_$$_FPCANSISTRDECRREF$POINTER:
.Lc392:
.seh_proc SYSTEM_$$_FPCANSISTRDECRREF$POINTER
# [307] begin
	leaq	-40(%rsp),%rsp
.Lc394:
.seh_stackalloc 40
.seh_endprologue
# Var p located in register rax
	movq	%rcx,%rax
# Var s located in register rax
# [308] if s = nil then exit;
	cmpq	$0,(%rax)
	je	.Lj731
	.balign 4,0x90
# [309] p := PAnsiRec(s-AnsiFirstOff);
	movq	(%rax),%rdx
	leaq	-32(%rdx),%rcx
# Var p located in register rcx
# [310] s := nil;
	movq	$0,(%rax)
# [311] if p^.ref < 0 then exit;
	cmpq	$0,16(%rcx)
	jl	.Lj731
	.balign 4,0x90
# Var p located in register rcx
# [315] dec(p^.Ref);
	subq	$1,16(%rcx)
# [316] if p^.Ref <= 0 then FreeMem(p);
	cmpq	$0,16(%rcx)
	jnle	.Lj738
	call	SYSTEM_$$_FREEMEM$POINTER$$QWORD
	.balign 4,0x90
.Lj738:
.Lj731:
# [317] end;
	nop
	leaq	40(%rsp),%rsp
	ret
.seh_endproc
.Lc393:

.section .text.n_fpc_ansistr_decr_ref,"x"
	.balign 16,0x90
.globl	fpc_ansistr_decr_ref
fpc_ansistr_decr_ref:
.globl	FPC_ANSISTR_DECR_REF
FPC_ANSISTR_DECR_REF:
.Lc395:
.seh_proc fpc_ansistr_decr_ref
# [319] begin
	leaq	-40(%rsp),%rsp
.Lc397:
.seh_stackalloc 40
.seh_endprologue
# Var s located in register rax
# [320] fpcansistrdecrref(s);
	call	SYSTEM_$$_FPCANSISTRDECRREF$POINTER
# [321] end;
	nop
	leaq	40(%rsp),%rsp
	ret
.seh_endproc
.Lc396:

.section .text.n_system_$$_fpcansistrincrref$pointer,"x"
	.balign 16,0x90
.globl	SYSTEM_$$_FPCANSISTRINCRREF$POINTER
SYSTEM_$$_FPCANSISTRINCRREF$POINTER:
.Lc398:
# [336] begin
	movq	%rcx,%rax
# Var s located in register rax
# [337] if s = nil then exit;
	testq	%rcx,%rcx
	je	.Lj741
	.balign 4,0x90
# [338] if PAnsiRec(s-AnsiFirstOff)^.Ref < 0 then exit;
	cmpq	$0,-16(%rax)
	jl	.Lj741
	.balign 4,0x90
# Var s located in register rax
# [340] inc(PAnsiRec(s-AnsiFirstOff)^.Ref);
	addq	$1,-16(%rax)
.Lj741:
# [342] end;
	ret
.Lc399:

.section .text.n_fpc_ansistr_incr_ref,"x"
	.balign 16,0x90
.globl	fpc_ansistr_incr_ref
fpc_ansistr_incr_ref:
.globl	FPC_ANSISTR_INCR_REF
FPC_ANSISTR_INCR_REF:
.Lc400:
.seh_proc fpc_ansistr_incr_ref
# [344] begin
	leaq	-40(%rsp),%rsp
.Lc402:
.seh_stackalloc 40
.seh_endprologue
# Var s located in register rax
# Var s located in register rcx
# [345] fpcansistrincrref(s);
	call	SYSTEM_$$_FPCANSISTRINCRREF$POINTER
# [346] end;
	nop
	leaq	40(%rsp),%rsp
	ret
.seh_endproc
.Lc401:

.section .text.n_system_$$_fpcansistrconcat$rawbytestring$rawbytestring$rawbytestring$longword,"x"
	.balign 16,0x90
.globl	SYSTEM_$$_FPCANSISTRCONCAT$RAWBYTESTRING$RAWBYTESTRING$RAWBYTESTRING$LONGWORD
SYSTEM_$$_FPCANSISTRCONCAT$RAWBYTESTRING$RAWBYTESTRING$RAWBYTESTRING$LONGWORD:
.Lc403:
.seh_proc SYSTEM_$$_FPCANSISTRCONCAT$RAWBYTESTRING$RAWBYTESTRING$RAWBYTESTRING$LONGWORD
# [358] begin
	pushq	%rbx
.seh_pushreg %rbx
	pushq	%rdi
.seh_pushreg %rdi
	pushq	%rsi
.seh_pushreg %rsi
	leaq	-32(%rsp),%rsp
.Lc405:
.seh_stackalloc 32
.seh_endprologue
	movq	%rcx,%rbx
# Var dests located in register rbx
	movq	%rdx,%rsi
# Var s1 located in register rsi
	movq	%r8,%rdi
# Var s2 located in register rdi
# Var cp located in register r9d
# [359] pointer(dests) := new_ansistring(length(s1)+length(s2));
	movq	%rsi,%rax
	testq	%rsi,%rsi
	je	.Lj751
	movq	-8(%rax),%rax
.Lj751:
	movq	%rdi,%rdx
	testq	%rdi,%rdi
	je	.Lj752
	movq	-8(%rdx),%rdx
.Lj752:
	leaq	(%rax,%rdx),%rcx
	call	SYSTEM_$$_NEW_ANSISTRING$INT64$$POINTER
	movq	%rax,(%rbx)
# [360] move(s1[1], dests[1], length(s1));
	movq	%rbx,%rcx
	call	fpc_ansistr_unique
	movq	%rax,%rdx
	movq	%rsi,%r8
	testq	%rsi,%rsi
	je	.Lj753
	movq	-8(%r8),%r8
.Lj753:
	movq	%rsi,%rcx
	call	SYSTEM_$$_MOVE$formal$formal$QWORD
# [361] move(s2[1], dests[length(s1)+1], length(s2));
	movq	%rbx,%rcx
	call	fpc_ansistr_unique
	testq	%rsi,%rsi
	je	.Lj754
	movq	-8(%rsi),%rsi
.Lj754:
	leaq	1(%rsi),%rdx
	leaq	-1(%rax,%rdx,1),%rdx
	movq	%rdi,%r8
	testq	%rdi,%rdi
	je	.Lj755
	movq	-8(%r8),%r8
.Lj755:
	movq	%rdi,%rcx
	call	SYSTEM_$$_MOVE$formal$formal$QWORD
# [362] end;
	nop
	leaq	32(%rsp),%rsp
	popq	%rsi
	popq	%rdi
	popq	%rbx
	ret
.seh_endproc
.Lc404:

.section .text.n_fpc_ansistr_concat,"x"
	.balign 16,0x90
.globl	fpc_ansistr_concat
fpc_ansistr_concat:
.Lc406:
.seh_proc fpc_ansistr_concat
# [364] begin
	leaq	-40(%rsp),%rsp
.Lc408:
.seh_stackalloc 40
.seh_endprologue
# Var dests located in register rax
# Var s1 located in register rdx
# Var s2 located in register r8
# Var cp located in register r9d
# Var cp located in register r9d
# Var s2 located in register r8
# Var s1 located in register rdx
# [365] fpcansistrconcat(dests, s1, s2, cp);
	call	SYSTEM_$$_FPCANSISTRCONCAT$RAWBYTESTRING$RAWBYTESTRING$RAWBYTESTRING$LONGWORD
# [366] end;
	nop
	leaq	40(%rsp),%rsp
	ret
.seh_endproc
.Lc407:

.section .text.n_fpc_ansistr_concat_multi,"x"
	.balign 16,0x90
.globl	fpc_ansistr_concat_multi
fpc_ansistr_concat_multi:
.Lc409:
# Temps allocated between rbp-8 and rbp+0
.seh_proc fpc_ansistr_concat_multi
# [377] begin
	pushq	%rbp
.seh_pushreg %rbp
.Lc411:
.Lc412:
	movq	%rsp,%rbp
.Lc413:
	leaq	-48(%rsp),%rsp
.seh_stackalloc 48
	movq	%rbx,-8(%rbp)
.seh_savereg %rbx, 40
.seh_endprologue
	movq	%rcx,%rax
# Var dests located in register rax
# Var sarr located in register rdx
# Var $highSARR located in register r8
# Var cp located in register r9d
# [378] writeln('fpc_ansistr_concat_multi');
	call	fpc_get_output
	movq	%rax,%rbx
	leaq	_$SYSTEM$_Ld25(%rip),%r8
	movq	%rbx,%rdx
	xorl	%ecx,%ecx
	call	fpc_write_text_shortstr
	movq	%rbx,%rcx
	call	fpc_writeln_end
# [379] end;
	movq	-8(%rbp),%rbx
	leaq	(%rbp),%rsp
	popq	%rbp
	ret
.seh_endproc
.Lc410:

.section .text.n_system_$$_fpctruelyansistrunique$pointer$$pointer,"x"
	.balign 16,0x90
.globl	SYSTEM_$$_FPCTRUELYANSISTRUNIQUE$POINTER$$POINTER
SYSTEM_$$_FPCTRUELYANSISTRUNIQUE$POINTER$$POINTER:
.Lc414:
.seh_proc SYSTEM_$$_FPCTRUELYANSISTRUNIQUE$POINTER$$POINTER
# [386] begin
	pushq	%rbx
.seh_pushreg %rbx
	pushq	%rdi
.seh_pushreg %rdi
	pushq	%rsi
.seh_pushreg %rsi
	leaq	-32(%rsp),%rsp
.Lc416:
.seh_stackalloc 32
.seh_endprologue
# Var $result located in register rax
# Var SNew located in register rax
# Var L located in register rax
	movq	%rcx,%rbx
# Var S located in register rbx
# [387] L := PAnsiRec(Pointer(S) - AnsiFirstOff)^.len;
	movq	(%rbx),%rax
# Var L located in register rsi
	movq	-8(%rax),%rsi
# Var L located in register rsi
# [388] SNew := new_ansistring(L);
	movq	%rsi,%rcx
	call	SYSTEM_$$_NEW_ANSISTRING$INT64$$POINTER
	movq	%rax,%rdi
# Var SNew located in register rdi
# [389] Move(Pointer(S)^, SNew^, L + 1);
	movq	(%rbx),%rcx
	leaq	1(%rsi),%r8
# Var SNew located in register rdi
	movq	%rdi,%rdx
	call	SYSTEM_$$_MOVE$formal$formal$QWORD
# [390] PAnsiRec(SNew - AnsiFirstOff)^.len := L;
	movq	%rdi,%rax
# Var SNew located in register rax
# Var L located in register rsi
	movq	%rsi,-8(%rax)
# [391] PAnsiRec(SNew - AnsiFirstOff)^.CodePage := PAnsiRec(Pointer(S) - AnsiFirstOff)^.CodePage;
	movq	(%rbx),%rdx
# Var SNew located in register rax
	movl	-32(%rdx),%edx
	movl	%edx,-32(%rax)
# Var SNew located in register rax
# [393] pointer(S) := SNew;
	movq	%rax,(%rbx)
# Var $result located in register rax
# Var SNew located in register rax
# [395] end;
	nop
	leaq	32(%rsp),%rsp
	popq	%rsi
	popq	%rdi
	popq	%rbx
	ret
.seh_endproc
.Lc415:

.section .text.n_system_$$_fpc_truely_ansistr_unique$pointer$$pointer,"x"
	.balign 16,0x90
SYSTEM_$$_FPC_TRUELY_ANSISTR_UNIQUE$POINTER$$POINTER:
.Lc417:
.seh_proc SYSTEM_$$_FPC_TRUELY_ANSISTR_UNIQUE$POINTER$$POINTER
# [397] begin
	leaq	-40(%rsp),%rsp
.Lc419:
.seh_stackalloc 40
.seh_endprologue
# Var $result located in register rax
# Var S located in register rcx
# [398] result := fpctruelyansistrunique(s);
	call	SYSTEM_$$_FPCTRUELYANSISTRUNIQUE$POINTER$$POINTER
# Var $result located in register rax
# [399] end;
	nop
	leaq	40(%rsp),%rsp
	ret
.seh_endproc
.Lc418:

.section .text.n_fpc_ansistr_unique,"x"
	.balign 16,0x90
.globl	fpc_ansistr_unique
fpc_ansistr_unique:
.globl	FPC_ANSISTR_UNIQUE
FPC_ANSISTR_UNIQUE:
.Lc420:
.seh_proc fpc_ansistr_unique
# [410] begin
	pushq	%rbx
.seh_pushreg %rbx
	leaq	-32(%rsp),%rsp
.Lc422:
.seh_stackalloc 32
.seh_endprologue
# Var $result located in register rax
# Var s located in register rcx
# Var $result located in register rbx
# [411] pointer(result) := pointer(s);
	movq	(%rcx),%rbx
# [412] if (result <> nil) and (PAnsiRec(result - AnsiFirstOff)^.Ref <> 1) then result := fpc_truely_ansistr_unique(s);
	testq	%rbx,%rbx
	je	.Lj767
	cmpq	$1,-16(%rbx)
	je	.Lj767
	call	SYSTEM_$$_FPC_TRUELY_ANSISTR_UNIQUE$POINTER$$POINTER
	movq	%rax,%rbx
	.balign 4,0x90
.Lj767:
# [413] end;
	movq	%rbx,%rax
	nop
	leaq	32(%rsp),%rsp
	popq	%rbx
	ret
.seh_endproc
.Lc421:

.section .text.n_fpc_ansistr_sint,"x"
	.balign 16,0x90
.globl	fpc_ansistr_sint
fpc_ansistr_sint:
.globl	FPC_ANSISTR_VALSINT
FPC_ANSISTR_VALSINT:
.Lc423:
.seh_proc fpc_ansistr_sint
# [416] begin
	pushq	%rbx
.seh_pushreg %rbx
	leaq	-32(%rsp),%rsp
.Lc425:
.seh_stackalloc 32
.seh_endprologue
	movq	%rcx,%rax
# Var v located in register rax
# Var len located in register rdx
# Var s located in register r8
# Var cp located in register r9d
	movq	$0,(%r8)
# [417] writeln('fpc_ansistr_sint');
	call	fpc_get_output
	movq	%rax,%rbx
	leaq	_$SYSTEM$_Ld26(%rip),%r8
	movq	%rbx,%rdx
	xorl	%ecx,%ecx
	call	fpc_write_text_shortstr
	movq	%rbx,%rcx
	call	fpc_writeln_end
# [418] end;
	nop
	leaq	32(%rsp),%rsp
	popq	%rbx
	ret
.seh_endproc
.Lc424:

.section .text.n_system_$$_fpcchartoansistr$char$longword$$rawbytestring,"x"
	.balign 16,0x90
.globl	SYSTEM_$$_FPCCHARTOANSISTR$CHAR$LONGWORD$$RAWBYTESTRING
SYSTEM_$$_FPCCHARTOANSISTR$CHAR$LONGWORD$$RAWBYTESTRING:
.Lc426:
.seh_proc SYSTEM_$$_FPCCHARTOANSISTR$CHAR$LONGWORD$$RAWBYTESTRING
# [422] begin
	pushq	%rbx
.seh_pushreg %rbx
	leaq	-48(%rsp),%rsp
.Lc428:
.seh_stackalloc 48
.seh_endprologue
# Var c located at rsp+32, size=OS_8
	movq	%rcx,%rbx
# Var $result located in register rbx
	movb	%dl,32(%rsp)
# Var cp located in register r8d
# [423] pointer(result) := new_ansistring(1);
	movl	$1,%ecx
	call	SYSTEM_$$_NEW_ANSISTRING$INT64$$POINTER
	movq	%rax,(%rbx)
# [424] move(c, result[1], 1);
	movq	%rbx,%rcx
	call	fpc_ansistr_unique
	movq	%rax,%rdx
	leaq	32(%rsp),%rcx
	movl	$1,%r8d
	call	SYSTEM_$$_MOVE$formal$formal$QWORD
# [425] end;
	nop
	leaq	48(%rsp),%rsp
	popq	%rbx
	ret
.seh_endproc
.Lc427:

.section .text.n_fpc_char_to_ansistr,"x"
	.balign 16,0x90
.globl	fpc_char_to_ansistr
fpc_char_to_ansistr:
.Lc429:
.seh_proc fpc_char_to_ansistr
# [427] begin
	leaq	-40(%rsp),%rsp
.Lc431:
.seh_stackalloc 40
.seh_endprologue
# Var $result located in register rax
# Var c located in register dl
# Var cp located in register r8d
# Var cp located in register r8d
# Var c located in register dl
# [428] Exit(fpcchartoansistr(c, cp));
	andl	$255,%edx
	call	SYSTEM_$$_FPCCHARTOANSISTR$CHAR$LONGWORD$$RAWBYTESTRING
# [429] end;
	nop
	leaq	40(%rsp),%rsp
	ret
.seh_endproc
.Lc430:

.section .text.n_system_$$_fpcansistrcompareequal$rawbytestring$rawbytestring$$int64,"x"
	.balign 16,0x90
.globl	SYSTEM_$$_FPCANSISTRCOMPAREEQUAL$RAWBYTESTRING$RAWBYTESTRING$$INT64
SYSTEM_$$_FPCANSISTRCOMPAREEQUAL$RAWBYTESTRING$RAWBYTESTRING$$INT64:
.Lc432:
.seh_proc SYSTEM_$$_FPCANSISTRCOMPAREEQUAL$RAWBYTESTRING$RAWBYTESTRING$$INT64
# [442] begin
	pushq	%rbx
.seh_pushreg %rbx
	leaq	-32(%rsp),%rsp
.Lc434:
.seh_stackalloc 32
.seh_endprologue
# Var $result located in register rbx
# Var s1 located in register rcx
# Var s2 located in register rdx
# [443] if pointer(s1) = pointer(s2) then exit(0);
	cmpq	%rcx,%rdx
	jne	.Lj778
	xorl	%ebx,%ebx
	jmp	.Lj775
	.balign 4,0x90
.Lj778:
# [444] if (pointer(s1) = nil) or (pointer(s2) = nil) then exit(-1);
	testq	%rcx,%rcx
	je	.Lj779
	testq	%rdx,%rdx
	jne	.Lj781
.Lj779:
	movq	$-1,%rbx
	jmp	.Lj775
	.balign 4,0x90
.Lj781:
# [445] if length(s1) <> length(s2) then exit(-1);
	movq	%rcx,%rax
	testq	%rcx,%rcx
	je	.Lj782
	movq	-8(%rax),%rax
.Lj782:
	movq	%rdx,%r8
	testq	%rdx,%rdx
	je	.Lj783
	movq	-8(%r8),%r8
.Lj783:
	cmpq	%r8,%rax
	je	.Lj785
	movq	$-1,%rbx
	jmp	.Lj775
	.balign 4,0x90
.Lj785:
# [446] result := CompareByte(s1[1], s2[1], length(s1));
	movq	%rcx,%r8
	testq	%rcx,%rcx
	je	.Lj786
	movq	-8(%r8),%r8
.Lj786:
	call	SYSTEM_$$_COMPAREBYTE$formal$formal$QWORD$$INT64
	movq	%rax,%rbx
.Lj775:
# [447] end;
	movq	%rbx,%rax
	nop
	leaq	32(%rsp),%rsp
	popq	%rbx
	ret
.seh_endproc
.Lc433:

.section .text.n_fpc_ansistr_compare_equal,"x"
	.balign 16,0x90
.globl	fpc_ansistr_compare_equal
fpc_ansistr_compare_equal:
.globl	FPC_ANSISTR_COMPARE_EQUAL
FPC_ANSISTR_COMPARE_EQUAL:
.Lc435:
.seh_proc fpc_ansistr_compare_equal
# [449] begin
	leaq	-40(%rsp),%rsp
.Lc437:
.seh_stackalloc 40
.seh_endprologue
# Var $result located in register rax
# Var s1 located in register rcx
# Var s2 located in register rdx
# Var s2 located in register rdx
# Var s1 located in register rcx
# [450] result := fpcansistrcompareequal(s1, s2);
	call	SYSTEM_$$_FPCANSISTRCOMPAREEQUAL$RAWBYTESTRING$RAWBYTESTRING$$INT64
# Var $result located in register rax
# [451] end;
	nop
	leaq	40(%rsp),%rsp
	ret
.seh_endproc
.Lc436:

.section .text.n_system_$$_fpcansistrcopy$rawbytestring$int64$int64$$rawbytestring,"x"
	.balign 16,0x90
.globl	SYSTEM_$$_FPCANSISTRCOPY$RAWBYTESTRING$INT64$INT64$$RAWBYTESTRING
SYSTEM_$$_FPCANSISTRCOPY$RAWBYTESTRING$INT64$INT64$$RAWBYTESTRING:
.Lc438:
.seh_proc SYSTEM_$$_FPCANSISTRCOPY$RAWBYTESTRING$INT64$INT64$$RAWBYTESTRING
# [465] begin
	pushq	%rbx
.seh_pushreg %rbx
	pushq	%rdi
.seh_pushreg %rdi
	pushq	%rsi
.seh_pushreg %rsi
	pushq	%r12
.seh_pushreg %r12
	pushq	%r13
.seh_pushreg %r13
	leaq	-32(%rsp),%rsp
.Lc440:
.seh_stackalloc 32
.seh_endprologue
# Var ResultAddress located in register rax
	movq	%rcx,%rbx
# Var $result located in register rbx
	movq	%rdx,%rsi
# Var s located in register rsi
	movq	%r8,%rdi
# Var index located in register rdi
	movq	%r9,%r12
# Var size located in register r12
# Var ResultAddress located in register r13
# [466] ResultAddress:=Nil;
	xorq	%r13,%r13
# [467] dec(index);
	subq	$1,%rdi
# [468] if Index < 0 then
	testq	%rdi,%rdi
	jnl	.Lj792
# [469] Index := 0;
	xorl	%edi,%edi
	.balign 4,0x90
.Lj792:
# [472] if (Size>Length(S)) or
	movq	%rsi,%rax
	testq	%rsi,%rsi
	je	.Lj793
	movq	-8(%rax),%rax
.Lj793:
	cmpq	%r12,%rax
	jl	.Lj794
# [473] (Index+Size>Length(S)) then
	leaq	(%rdi,%r12),%rdx
	cmpq	%rax,%rdx
	jng	.Lj796
.Lj794:
# [474] Size:=Length(S)-Index;
	movq	%rsi,%rax
	testq	%rsi,%rsi
	je	.Lj797
	movq	-8(%rax),%rax
.Lj797:
	subq	%rdi,%rax
	movq	%rax,%r12
	.balign 4,0x90
.Lj796:
# [475] If Size>0 then
	testq	%r12,%r12
	jng	.Lj799
# [477] ResultAddress:=new_ansistring(size);
	movq	%r12,%rcx
	call	SYSTEM_$$_NEW_ANSISTRING$INT64$$POINTER
	movq	%rax,%r13
# [478] if ResultAddress<>Nil then
	testq	%rax,%rax
	je	.Lj801
# [480] Move(Pointer(Pointer(S)+index)^,ResultAddress^,Size);
	leaq	(%rsi,%rdi),%rcx
	movq	%r13,%rdx
	movq	%r12,%r8
	call	SYSTEM_$$_MOVE$formal$formal$QWORD
# [481] PByte(ResultAddress+Size)^:=0;
	leaq	(%r12,%r13),%rax
	movb	$0,(%rax)
# [482] PAnsiRec(ResultAddress-AnsiFirstOff)^.Len:=Size;
	movq	%r12,-8(%r13)
# [483] PAnsiRec(ResultAddress-AnsiFirstOff)^.CodePage:=PAnsiRec(Pointer(S)-AnsiFirstOff)^.CodePage;
	movl	-32(%rsi),%eax
	movl	%eax,-32(%r13)
	.balign 4,0x90
.Lj801:
	.balign 4,0x90
.Lj799:
# [486] fpc_ansistr_decr_ref(Pointer(fpcansistrcopy));
	movq	%rbx,%rcx
	call	FPC_ANSISTR_DECR_REF
# Var ResultAddress located in register r13
# [487] Pointer(fpcansistrCopy):=ResultAddress;
	movq	%r13,(%rbx)
# [488] end;
	nop
	leaq	32(%rsp),%rsp
	popq	%r13
	popq	%r12
	popq	%rsi
	popq	%rdi
	popq	%rbx
	ret
.seh_endproc
.Lc439:

.section .text.n_fpc_ansistr_copy,"x"
	.balign 16,0x90
.globl	fpc_ansistr_copy
fpc_ansistr_copy:
.Lc441:
.seh_proc fpc_ansistr_copy
# [498] begin
	leaq	-40(%rsp),%rsp
.Lc443:
.seh_stackalloc 40
.seh_endprologue
# Var $result located in register rax
# Var s located in register rdx
# Var index located in register r8
# Var size located in register r9
# Var size located in register r9
# Var index located in register r8
# Var s located in register rdx
# [499] result := fpcansistrcopy(s, index, size);
	call	SYSTEM_$$_FPCANSISTRCOPY$RAWBYTESTRING$INT64$INT64$$RAWBYTESTRING
# [500] end;
	nop
	leaq	40(%rsp),%rsp
	ret
.seh_endproc
.Lc442:

.section .text.n_system_$$_fpcwidestrassign$pointer$pointer,"x"
	.balign 16,0x90
.globl	SYSTEM_$$_FPCWIDESTRASSIGN$POINTER$POINTER
SYSTEM_$$_FPCWIDESTRASSIGN$POINTER$POINTER:
.Lc444:
.seh_proc SYSTEM_$$_FPCWIDESTRASSIGN$POINTER$POINTER
# [512] begin
	pushq	%rbx
.seh_pushreg %rbx
	pushq	%rsi
.seh_pushreg %rsi
	leaq	-40(%rsp),%rsp
.Lc446:
.seh_stackalloc 40
.seh_endprologue
	movq	%rcx,%rbx
# Var s1 located in register rbx
	movq	%rdx,%rsi
# Var s2 located in register rsi
# [513] if s1 = s2 then exit;
	cmpq	(%rbx),%rsi
	je	.Lj804
	.balign 4,0x90
# [514] if s2 <> nil then begin
	testq	%rsi,%rsi
	je	.Lj809
# [515] setlength(widestring(s1), length(widestring(s2)));
	movq	%rsi,%rdx
	testq	%rsi,%rsi
	je	.Lj810
	movl	-4(%rdx),%edx
	shrq	$1,%rdx
.Lj810:
	movq	%rbx,%rcx
	call	fpc_widestr_setlength
# [516] move(s2^, s1^, length(widestring(s1))+1*sizeof(WideChar));
	movq	(%rbx),%rax
	testq	%rax,%rax
	je	.Lj811
	movl	-4(%rax),%eax
	shrq	$1,%rax
.Lj811:
	leaq	2(%rax),%r8
	movq	(%rbx),%rdx
	movq	%rsi,%rcx
	call	SYSTEM_$$_MOVE$formal$formal$QWORD
	jmp	.Lj812
.Lj809:
# [518] fpc_widestr_decr_ref(s1); // will set s1 to nil
	movq	%rbx,%rcx
	call	fpc_widestr_decr_ref
.Lj812:
.Lj804:
# [519] end;
	nop
	leaq	40(%rsp),%rsp
	popq	%rsi
	popq	%rbx
	ret
.seh_endproc
.Lc445:

.section .text.n_fpc_widestr_assign,"x"
	.balign 16,0x90
.globl	fpc_widestr_assign
fpc_widestr_assign:
.globl	FPC_WIDESTR_ASSIGN
FPC_WIDESTR_ASSIGN:
.Lc447:
.seh_proc fpc_widestr_assign
# [521] begin
	leaq	-40(%rsp),%rsp
.Lc449:
.seh_stackalloc 40
.seh_endprologue
# Var s1 located in register rax
# Var s2 located in register rdx
# Var s2 located in register rdx
# [522] fpcwidestrassign(s1, s2);
	call	SYSTEM_$$_FPCWIDESTRASSIGN$POINTER$POINTER
# [523] end;
	nop
	leaq	40(%rsp),%rsp
	ret
.seh_endproc
.Lc448:

.section .text.n_fpc_widestr_setlength,"x"
	.balign 16,0x90
.globl	fpc_widestr_setlength
fpc_widestr_setlength:
.globl	FPC_WIDESTR_SETLENGTH
FPC_WIDESTR_SETLENGTH:
.Lc450:
.seh_proc fpc_widestr_setlength
# [534] begin
	pushq	%rbx
.seh_pushreg %rbx
	leaq	-32(%rsp),%rsp
.Lc452:
.seh_stackalloc 32
.seh_endprologue
	movq	%rcx,%rbx
# Var s located in register rbx
	movq	%rdx,%rcx
# Var l located in register rcx
# Var l located in register rcx
# [535] pointer(s) := new_widestring(l);
	call	SYSTEM_$$_NEW_WIDESTRING$INT64$$POINTER
	movq	%rax,(%rbx)
# [536] end;
	nop
	leaq	32(%rsp),%rsp
	popq	%rbx
	ret
.seh_endproc
.Lc451:

.section .text.n_system_$$_fpcwidestrdecrref$pointer,"x"
	.balign 16,0x90
.globl	SYSTEM_$$_FPCWIDESTRDECRREF$POINTER
SYSTEM_$$_FPCWIDESTRDECRREF$POINTER:
.Lc453:
.seh_proc SYSTEM_$$_FPCWIDESTRDECRREF$POINTER
# [540] Begin
	pushq	%rbx
.seh_pushreg %rbx
	leaq	-32(%rsp),%rsp
.Lc455:
.seh_stackalloc 32
.seh_endprologue
	movq	%rcx,%rbx
# Var s located in register rbx
# [541] if s = nil then exit;
	cmpq	$0,(%rbx)
	je	.Lj817
	.balign 4,0x90
# [542] dec(s, WideFirstOff);
	subq	$4,(%rbx)
# [543] xfreemem(s);
	movq	(%rbx),%rcx
	call	_$dll$rtllib$xfreemem
# [544] s := nil;
	movq	$0,(%rbx)
.Lj817:
# [545] end;
	nop
	leaq	32(%rsp),%rsp
	popq	%rbx
	ret
.seh_endproc
.Lc454:

.section .text.n_fpc_widestr_decr_ref,"x"
	.balign 16,0x90
.globl	fpc_widestr_decr_ref
fpc_widestr_decr_ref:
.globl	FPC_WIDESTR_DECR_REF
FPC_WIDESTR_DECR_REF:
.Lc456:
.seh_proc fpc_widestr_decr_ref
# [547] begin
	leaq	-40(%rsp),%rsp
.Lc458:
.seh_stackalloc 40
.seh_endprologue
# Var s located in register rax
# [548] fpcwidestrdecrref(s);
	call	SYSTEM_$$_FPCWIDESTRDECRREF$POINTER
# [549] end;
	nop
	leaq	40(%rsp),%rsp
	ret
.seh_endproc
.Lc457:

.section .text.n_system_$$_fpcwidestrincrref$pointer,"x"
	.balign 16,0x90
.globl	SYSTEM_$$_FPCWIDESTRINCRREF$POINTER
SYSTEM_$$_FPCWIDESTRINCRREF$POINTER:
.Lc459:
.seh_proc SYSTEM_$$_FPCWIDESTRINCRREF$POINTER
# [566] Begin
	pushq	%rbx
.seh_pushreg %rbx
	pushq	%rsi
.seh_pushreg %rsi
	leaq	-40(%rsp),%rsp
.Lc461:
.seh_stackalloc 40
.seh_endprologue
# Var p located in register rax
	movq	%rcx,%rbx
# Var s located in register rbx
# [567] if s = nil then exit;
	cmpq	$0,(%rbx)
	je	.Lj823
	.balign 4,0x90
# [568] p := new_widestring(length(WideString(s)));
	movq	(%rbx),%rcx
	testq	%rcx,%rcx
	je	.Lj827
	movl	-4(%rcx),%ecx
	shrq	$1,%rcx
.Lj827:
	call	SYSTEM_$$_NEW_WIDESTRING$INT64$$POINTER
	movq	%rax,%rsi
# Var p located in register rsi
# [569] move(s^, p^, (length(WideString(s))+1)*sizeof(widechar));
	movq	(%rbx),%rax
	testq	%rax,%rax
	je	.Lj828
	movl	-4(%rax),%eax
	shrq	$1,%rax
.Lj828:
	leaq	1(%rax),%r8
	shlq	$1,%r8
	movq	(%rbx),%rcx
# Var p located in register rsi
	movq	%rsi,%rdx
	call	SYSTEM_$$_MOVE$formal$formal$QWORD
# Var p located in register rsi
# [570] s := p;
	movq	%rsi,(%rbx)
.Lj823:
# [571] end;
	nop
	leaq	40(%rsp),%rsp
	popq	%rsi
	popq	%rbx
	ret
.seh_endproc
.Lc460:

.section .text.n_fpc_widestr_incr_ref,"x"
	.balign 16,0x90
.globl	fpc_widestr_incr_ref
fpc_widestr_incr_ref:
.globl	FPC_WIDESTR_INCR_REF
FPC_WIDESTR_INCR_REF:
.Lc462:
.seh_proc fpc_widestr_incr_ref
# [573] begin
	leaq	-40(%rsp),%rsp
.Lc464:
.seh_stackalloc 40
.seh_endprologue
# Var s located in register rax
# [574] fpcwidestrincrref(s);
	call	SYSTEM_$$_FPCWIDESTRINCRREF$POINTER
# [575] end;
	nop
	leaq	40(%rsp),%rsp
	ret
.seh_endproc
.Lc463:

.section .text.n_fpc_pchar_to_shortstr,"x"
	.balign 16,0x90
.globl	fpc_pchar_to_shortstr
fpc_pchar_to_shortstr:
.globl	FPC_PCHAR_TO_SHORTSTR
FPC_PCHAR_TO_SHORTSTR:
.Lc465:
.seh_proc fpc_pchar_to_shortstr
# [593] begin
	pushq	%rbx
.seh_pushreg %rbx
	leaq	-32(%rsp),%rsp
.Lc467:
.seh_stackalloc 32
.seh_endprologue
	movq	%rcx,%rax
# Var res located in register rax
# Var p located in register rdx
# [594] writeln('fpc_pchar_to_shortstr');
	call	fpc_get_output
	movq	%rax,%rbx
	leaq	_$SYSTEM$_Ld27(%rip),%r8
	movq	%rbx,%rdx
	xorl	%ecx,%ecx
	call	fpc_write_text_shortstr
	movq	%rbx,%rcx
	call	fpc_writeln_end
# [595] end;
	nop
	leaq	32(%rsp),%rsp
	popq	%rbx
	ret
.seh_endproc
.Lc466:

.section .text.n_system_$$_fpcpchartoansistr$pansichar$longword$$rawbytestring,"x"
	.balign 16,0x90
.globl	SYSTEM_$$_FPCPCHARTOANSISTR$PANSICHAR$LONGWORD$$RAWBYTESTRING
SYSTEM_$$_FPCPCHARTOANSISTR$PANSICHAR$LONGWORD$$RAWBYTESTRING:
.Lc468:
.seh_proc SYSTEM_$$_FPCPCHARTOANSISTR$PANSICHAR$LONGWORD$$RAWBYTESTRING
# [601] begin
	pushq	%rbx
.seh_pushreg %rbx
	pushq	%rdi
.seh_pushreg %rdi
	pushq	%rsi
.seh_pushreg %rsi
	leaq	-32(%rsp),%rsp
.Lc470:
.seh_stackalloc 32
.seh_endprologue
# Var l located in register eax
	movq	%rcx,%rbx
# Var $result located in register rbx
	movq	%rdx,%rsi
# Var p located in register rsi
# Var cp located in register r8d
# Var p located in register rsi
# [602] l := strlen(p);
	movq	%rsi,%rcx
	call	SYSTEM_$$_STRLEN$PCHAR$$LONGWORD
	movl	%eax,%edi
# Var l located in register edi
# [603] pointer(result) := new_ansistring(l);
	movl	%edi,%ecx
	call	SYSTEM_$$_NEW_ANSISTRING$INT64$$POINTER
	movq	%rax,(%rbx)
# [604] move(p^, result[1], l);
	movq	%rbx,%rcx
	call	fpc_ansistr_unique
	movq	%rax,%rdx
	movl	%edi,%r8d
	movq	%rsi,%rcx
# Var p located in register rcx
	call	SYSTEM_$$_MOVE$formal$formal$QWORD
# [605] end;
	nop
	leaq	32(%rsp),%rsp
	popq	%rsi
	popq	%rdi
	popq	%rbx
	ret
.seh_endproc
.Lc469:

.section .text.n_fpc_pchar_to_ansistr,"x"
	.balign 16,0x90
.globl	fpc_pchar_to_ansistr
fpc_pchar_to_ansistr:
.Lc471:
.seh_proc fpc_pchar_to_ansistr
# [607] begin
	leaq	-40(%rsp),%rsp
.Lc473:
.seh_stackalloc 40
.seh_endprologue
# Var $result located in register rax
# Var p located in register rdx
# Var cp located in register r8d
# Var cp located in register r8d
# Var p located in register rdx
# [608] result := fpcpchartoansistr(p, cp);
	call	SYSTEM_$$_FPCPCHARTOANSISTR$PANSICHAR$LONGWORD$$RAWBYTESTRING
# [609] end;
	nop
	leaq	40(%rsp),%rsp
	ret
.seh_endproc
.Lc472:

.section .text.n_system_$$_fpcpwidechartowidestr$pwidechar$$widestring,"x"
	.balign 16,0x90
.globl	SYSTEM_$$_FPCPWIDECHARTOWIDESTR$PWIDECHAR$$WIDESTRING
SYSTEM_$$_FPCPWIDECHARTOWIDESTR$PWIDECHAR$$WIDESTRING:
.Lc474:
.seh_proc SYSTEM_$$_FPCPWIDECHARTOWIDESTR$PWIDECHAR$$WIDESTRING
# [627] begin
	pushq	%rbx
.seh_pushreg %rbx
	pushq	%rdi
.seh_pushreg %rdi
	pushq	%rsi
.seh_pushreg %rsi
	leaq	-32(%rsp),%rsp
.Lc476:
.seh_stackalloc 32
.seh_endprologue
# Var len located in register rax
	movq	%rcx,%rbx
# Var $result located in register rbx
	movq	%rdx,%rsi
# Var p located in register rsi
# [628] result := '';
	movq	%rbx,%rcx
	xorl	%edx,%edx
	call	fpc_widestr_assign
# [629] if p = nil then exit;
	testq	%rsi,%rsi
	je	.Lj837
	.balign 4,0x90
# Var p located in register rsi
# [630] len := IndexWord(p^, -1, 0);
	movq	%rsi,%rcx
	xorl	%r8d,%r8d
	movq	$-1,%rdx
	call	SYSTEM_$$_INDEXWORD$formal$INT64$WORD$$INT64
	movq	%rax,%rdi
# Var len located in register rdi
# [631] setlength(result, len);
	movq	%rbx,%rcx
# Var len located in register rdi
	movq	%rdi,%rdx
	call	fpc_widestr_setlength
# [632] if len > 0 then move(p^, result[1], len*2);
	testq	%rdi,%rdi
	jng	.Lj842
	movq	%rdi,%r8
	shlq	$1,%r8
	movq	(%rbx),%rdx
	movq	%rsi,%rcx
	call	SYSTEM_$$_MOVE$formal$formal$QWORD
	.balign 4,0x90
.Lj842:
.Lj837:
# [633] end;
	nop
	leaq	32(%rsp),%rsp
	popq	%rsi
	popq	%rdi
	popq	%rbx
	ret
.seh_endproc
.Lc475:

.section .text.n_fpc_pwidechar_to_widestr,"x"
	.balign 16,0x90
.globl	fpc_pwidechar_to_widestr
fpc_pwidechar_to_widestr:
.Lc477:
.seh_proc fpc_pwidechar_to_widestr
# [635] begin
	leaq	-40(%rsp),%rsp
.Lc479:
.seh_stackalloc 40
.seh_endprologue
# Var $result located in register rax
# Var p located in register rdx
# Var p located in register rdx
# [636] result := fpcpwidechartowidestr(p);
	call	SYSTEM_$$_FPCPWIDECHARTOWIDESTR$PWIDECHAR$$WIDESTRING
# [637] end;
	nop
	leaq	40(%rsp),%rsp
	ret
.seh_endproc
.Lc478:

.section .text.n_system_$$_fpcpwidechartoansistr$pwidechar$longword$$ansistring,"x"
	.balign 16,0x90
.globl	SYSTEM_$$_FPCPWIDECHARTOANSISTR$PWIDECHAR$LONGWORD$$ANSISTRING
SYSTEM_$$_FPCPWIDECHARTOANSISTR$PWIDECHAR$LONGWORD$$ANSISTRING:
.Lc480:
.seh_proc SYSTEM_$$_FPCPWIDECHARTOANSISTR$PWIDECHAR$LONGWORD$$ANSISTRING
# [651] begin
	pushq	%rbx
.seh_pushreg %rbx
	pushq	%rdi
.seh_pushreg %rdi
	pushq	%rsi
.seh_pushreg %rsi
	pushq	%r12
.seh_pushreg %r12
	leaq	-40(%rsp),%rsp
.Lc482:
.seh_stackalloc 40
.seh_endprologue
# Var len located in register rax
# Var i located in register r12
	movq	%rcx,%rbx
# Var $result located in register rbx
	movq	%rdx,%rsi
# Var p located in register rsi
# Var cp located in register r8d
# [652] result := '';
	movq	%rbx,%rcx
	xorl	%edx,%edx
	call	fpc_ansistr_assign
# [653] if p = nil then exit;
	testq	%rsi,%rsi
	je	.Lj845
	.balign 4,0x90
# Var p located in register rsi
# [654] len := IndexWord(p^, -1, 0);
	movq	%rsi,%rcx
	xorl	%r8d,%r8d
	movq	$-1,%rdx
	call	SYSTEM_$$_INDEXWORD$formal$INT64$WORD$$INT64
	movq	%rax,%rdi
# Var len located in register rdi
# [655] setlength(result, len);
	movq	%rbx,%rcx
# Var len located in register rdi
	movq	%rdi,%rdx
	xorl	%r8d,%r8d
	call	fpc_ansistr_setlength
# [656] if len > 0 then begin
	testq	%rdi,%rdi
	jng	.Lj850
# [657] for i := 0 to len-1 do begin
	subq	$1,%rdi
	testq	%rdi,%rdi
	jnge	.Lj852
	movq	$-1,%r12
	.balign 8,0x90
.Lj853:
	addq	$1,%r12
# [659] result[1+i] := PAnsiChar(p+i)^;
	movq	%rbx,%rcx
	call	fpc_ansistr_unique
	leaq	1(%r12),%rcx
	movq	%r12,%rdx
	shlq	$1,%rdx
	addq	%rsi,%rdx
	movb	(%rdx),%dl
	movb	%dl,-1(%rax,%rcx,1)
	cmpq	%r12,%rdi
	jnle	.Lj853
	.balign 4,0x90
.Lj852:
	.balign 4,0x90
.Lj850:
.Lj845:
# [662] end;
	nop
	leaq	40(%rsp),%rsp
	popq	%r12
	popq	%rsi
	popq	%rdi
	popq	%rbx
	ret
.seh_endproc
.Lc481:

.section .text.n_fpc_pwidechar_to_ansistr,"x"
	.balign 16,0x90
.globl	fpc_pwidechar_to_ansistr
fpc_pwidechar_to_ansistr:
.Lc483:
.seh_proc fpc_pwidechar_to_ansistr
# [664] begin
	leaq	-40(%rsp),%rsp
.Lc485:
.seh_stackalloc 40
.seh_endprologue
# Var $result located in register rax
# Var p located in register rdx
# Var cp located in register r8d
# Var cp located in register r8d
# Var p located in register rdx
# [665] result := fpcpwidechartoansistr(p, cp);
	call	SYSTEM_$$_FPCPWIDECHARTOANSISTR$PWIDECHAR$LONGWORD$$ANSISTRING
# [666] end;
	nop
	leaq	40(%rsp),%rsp
	ret
.seh_endproc
.Lc484:

.section .text.n_fpc_uchar_to_ansistr,"x"
	.balign 16,0x90
.globl	fpc_uchar_to_ansistr
fpc_uchar_to_ansistr:
.Lc486:
.seh_proc fpc_uchar_to_ansistr
# [681] begin
	pushq	%rbx
.seh_pushreg %rbx
	leaq	-32(%rsp),%rsp
.Lc488:
.seh_stackalloc 32
.seh_endprologue
	movq	%rcx,%rax
# Var $result located in register rax
# Var c located in register dx
# Var cp located in register r8d
# [682] writeln('fpc_uchar_to_ansistr');
	call	fpc_get_output
	movq	%rax,%rbx
	leaq	_$SYSTEM$_Ld28(%rip),%r8
	movq	%rbx,%rdx
	xorl	%ecx,%ecx
	call	fpc_write_text_shortstr
	movq	%rbx,%rcx
	call	fpc_writeln_end
# [683] end;
	nop
	leaq	32(%rsp),%rsp
	popq	%rbx
	ret
.seh_endproc
.Lc487:

.section .text.n_system_$$_strlen_$pchar$$longword,"x"
	.balign 16,0x90
.globl	SYSTEM_$$_STRLEN_$PCHAR$$LONGWORD
SYSTEM_$$_STRLEN_$PCHAR$$LONGWORD:
.Lc489:
# Var $result located in register eax
# Var p located in register rcx
# [691] begin
# Var $result located in register eax
# [692] result := 0;
	movl	$0,%eax
# [693] if p = nil then exit;
	testq	%rcx,%rcx
	jne	.Lj865
	ret
	.balign 4,0x90
# [694] while (p+result)^ <> #0 do inc(result);
	jmp	.Lj865
	.balign 8,0x90
.Lj864:
	addl	$1,%eax
.Lj865:
	movl	%eax,%edx
	addq	%rcx,%rdx
	cmpb	$0,(%rdx)
	jne	.Lj864
# [695] end;
	ret
.Lc490:

.section .text.n_system_$$_strlen$pchar$$longword,"x"
	.balign 16,0x90
.globl	SYSTEM_$$_STRLEN$PCHAR$$LONGWORD
SYSTEM_$$_STRLEN$PCHAR$$LONGWORD:
.Lc491:
.seh_proc SYSTEM_$$_STRLEN$PCHAR$$LONGWORD
# [697] begin
	leaq	-40(%rsp),%rsp
.Lc493:
.seh_stackalloc 40
.seh_endprologue
# Var $result located in register eax
# Var p located in register rcx
# Var p located in register rcx
# [698] Exit(strlen_(p));
	call	SYSTEM_$$_STRLEN_$PCHAR$$LONGWORD
# Var $result located in register eax
# [699] end;
	nop
	leaq	40(%rsp),%rsp
	ret
.seh_endproc
.Lc492:

.section .text.n_system$_$strlen$ansistring$$longword_$$_fin$00000264,"x"
	.balign 16,0x90
SYSTEM$_$STRLEN$ANSISTRING$$LONGWORD_$$_fin$00000264:
.Lc494:
.seh_proc SYSTEM$_$STRLEN$ANSISTRING$$LONGWORD_$$_fin$00000264
# [719] end;
	pushq	%rbp
.seh_pushreg %rbp
.Lc496:
.Lc497:
	movq	%rcx,%rbp
.Lc498:
	leaq	-32(%rsp),%rsp
.seh_stackalloc 32
.seh_endprologue
# [717] begin
	leaq	-8(%rbp),%rcx
	call	fpc_ansistr_decr_ref
	nop
	leaq	32(%rsp),%rsp
	popq	%rbp
	ret
.seh_endproc
.Lc495:

.section .text.n_system_$$_strlen$ansistring$$longword,"x"
	.balign 16,0x90
.globl	SYSTEM_$$_STRLEN$ANSISTRING$$LONGWORD
SYSTEM_$$_STRLEN$ANSISTRING$$LONGWORD:
.Lc499:
# Temps allocated between rbp-16 and rbp-8
.seh_proc SYSTEM_$$_STRLEN$ANSISTRING$$LONGWORD
	pushq	%rbp
.seh_pushreg %rbp
.Lc501:
.Lc502:
	movq	%rsp,%rbp
.Lc503:
	leaq	-48(%rsp),%rsp
.seh_stackalloc 48
	movq	%rbx,-16(%rbp)
.seh_savereg %rbx, 32
.seh_endprologue
# Var s located at rbp-8, size=OS_64
# Var $result located in register ebx
	movq	%rcx,-8(%rbp)
	call	fpc_ansistr_incr_ref
.Lj877:
	nop
.Lj873:
# [718] result := length(s);
	movq	-8(%rbp),%rax
	testq	%rax,%rax
	je	.Lj878
	movq	-8(%rax),%rax
.Lj878:
	movl	%eax,%ebx
.Lj875:
	nop
.Lj874:
	movq	%rbp,%rcx
	call	SYSTEM$_$STRLEN$ANSISTRING$$LONGWORD_$$_fin$00000264
	movl	%ebx,%eax
	movq	-16(%rbp),%rbx
	leaq	(%rbp),%rsp
	popq	%rbp
	ret
.seh_handler __FPC_specific_handler,@unwind
.seh_handlerdata
	.long	1
	.long	0
	.rva	.Lj873
	.rva	.Lj874
	.rva	SYSTEM$_$STRLEN$ANSISTRING$$LONGWORD_$$_fin$00000264

.section .text.n_system_$$_strlen$ansistring$$longword,"x"
.seh_endproc
.Lc500:

.section .text.n_system_$$_newansistring$int64$$pointer,"x"
	.balign 16,0x90
.globl	SYSTEM_$$_NEWANSISTRING$INT64$$POINTER
SYSTEM_$$_NEWANSISTRING$INT64$$POINTER:
.Lc504:
.seh_proc SYSTEM_$$_NEWANSISTRING$INT64$$POINTER
# [724] begin
	pushq	%rbx
.seh_pushreg %rbx
	leaq	-32(%rsp),%rsp
.Lc506:
.seh_stackalloc 32
.seh_endprologue
# Var $result located in register rax
	movq	%rcx,%rbx
# Var len located in register rbx
# [725] result := GetMem(len+(AnsiFirstOff+SizeOf(AnsiChar)));
	leaq	33(%rbx),%rcx
	call	SYSTEM_$$_GETMEM$QWORD$$POINTER
# Var $result located in register rax
# [726] if result = nil then exit;
	testq	%rax,%rax
	je	.Lj879
	.balign 4,0x90
# Var len located in register rbx
# [727] PAnsiRec(result)^.len := len;
	movq	%rbx,24(%rax)
# [728] PAnsiRec(result)^.ref := 1;
	movq	$1,16(%rax)
# [729] PAnsiRec(result)^.codepage := DefaultSystemCodePage;
	movl	$1250,(%rax)
# [730] PAnsiRec(result)^.elementsize := SizeOf(AnsiChar);
	movw	$1,4(%rax)
# [731] inc(result, AnsiFirstOff);
	addq	$32,%rax
# [732] PAnsiChar(result)^ := #0; // null terminated
	movb	$0,(%rax)
.Lj879:
# [733] end;
	nop
	leaq	32(%rsp),%rsp
	popq	%rbx
	ret
.seh_endproc
.Lc505:

.section .text.n_system_$$_new_ansistring$int64$$pointer,"x"
	.balign 16,0x90
.globl	SYSTEM_$$_NEW_ANSISTRING$INT64$$POINTER
SYSTEM_$$_NEW_ANSISTRING$INT64$$POINTER:
.Lc507:
.seh_proc SYSTEM_$$_NEW_ANSISTRING$INT64$$POINTER
# [735] begin
	leaq	-40(%rsp),%rsp
.Lc509:
.seh_stackalloc 40
.seh_endprologue
# Var $result located in register rax
# Var len located in register rcx
# Var len located in register rcx
# [736] result := newansistring(len);
	call	SYSTEM_$$_NEWANSISTRING$INT64$$POINTER
# Var $result located in register rax
# [737] end;
	nop
	leaq	40(%rsp),%rsp
	ret
.seh_endproc
.Lc508:

.section .text.n_system_$$_newwidestring$int64$$pointer,"x"
	.balign 16,0x90
.globl	SYSTEM_$$_NEWWIDESTRING$INT64$$POINTER
SYSTEM_$$_NEWWIDESTRING$INT64$$POINTER:
.Lc510:
.seh_proc SYSTEM_$$_NEWWIDESTRING$INT64$$POINTER
# [750] begin
	pushq	%rbx
.seh_pushreg %rbx
	leaq	-32(%rsp),%rsp
.Lc512:
.seh_stackalloc 32
.seh_endprologue
# Var $result located in register rax
	movq	%rcx,%rbx
# Var len located in register rbx
# [751] result := GetMem(len * sizeof(widechar) + WideRecLen);
	movq	%rbx,%rax
	shlq	$1,%rax
	leaq	6(%rax),%rcx
	call	SYSTEM_$$_GETMEM$QWORD$$POINTER
# Var $result located in register rax
# [752] if result = nil then exit;
	testq	%rax,%rax
	je	.Lj885
	.balign 4,0x90
# [753] PWideRec(result)^.Len := len * 2;
	shlq	$1,%rbx
	movl	%ebx,(%rax)
# [754] PWideRec(result)^.First := #0;
	movw	$0,4(%rax)
# [755] inc(result, WideFirstOff);
	addq	$4,%rax
.Lj885:
# [756] end;
	nop
	leaq	32(%rsp),%rsp
	popq	%rbx
	ret
.seh_endproc
.Lc511:

.section .text.n_system_$$_new_widestring$int64$$pointer,"x"
	.balign 16,0x90
.globl	SYSTEM_$$_NEW_WIDESTRING$INT64$$POINTER
SYSTEM_$$_NEW_WIDESTRING$INT64$$POINTER:
.Lc513:
.seh_proc SYSTEM_$$_NEW_WIDESTRING$INT64$$POINTER
# [758] begin
	leaq	-40(%rsp),%rsp
.Lc515:
.seh_stackalloc 40
.seh_endprologue
# Var $result located in register rax
# Var len located in register rcx
# Var len located in register rcx
# [759] result := newwidestring(len);
	call	SYSTEM_$$_NEWWIDESTRING$INT64$$POINTER
# Var $result located in register rax
# [760] end;
	nop
	leaq	40(%rsp),%rsp
	ret
.seh_endproc
.Lc514:

.section .text.n_system$_$makeuniqueansistring$ansistring$$ansistring_$$_fin$00000265,"x"
	.balign 16,0x90
SYSTEM$_$MAKEUNIQUEANSISTRING$ANSISTRING$$ANSISTRING_$$_fin$00000265:
.Lc516:
.seh_proc SYSTEM$_$MAKEUNIQUEANSISTRING$ANSISTRING$$ANSISTRING_$$_fin$00000265
# [776] end;
	pushq	%rbp
.seh_pushreg %rbp
.Lc518:
.Lc519:
	movq	%rcx,%rbp
.Lc520:
	leaq	-32(%rsp),%rsp
.seh_stackalloc 32
.seh_endprologue
# [772] begin
	leaq	-8(%rbp),%rcx
	call	fpc_ansistr_decr_ref
	nop
	leaq	32(%rsp),%rsp
	popq	%rbp
	ret
.seh_endproc
.Lc517:

.section .text.n_system_$$_makeuniqueansistring$ansistring$$ansistring,"x"
	.balign 16,0x90
.globl	SYSTEM_$$_MAKEUNIQUEANSISTRING$ANSISTRING$$ANSISTRING
SYSTEM_$$_MAKEUNIQUEANSISTRING$ANSISTRING$$ANSISTRING:
.Lc521:
# Temps allocated between rbp-16 and rbp-8
.seh_proc SYSTEM_$$_MAKEUNIQUEANSISTRING$ANSISTRING$$ANSISTRING
	pushq	%rbp
.seh_pushreg %rbp
.Lc523:
.Lc524:
	movq	%rsp,%rbp
.Lc525:
	leaq	-48(%rsp),%rsp
.seh_stackalloc 48
	movq	%rbx,-16(%rbp)
.seh_savereg %rbx, 32
.seh_endprologue
# Var s located at rbp-8, size=OS_64
	movq	%rcx,%rbx
# Var $result located in register rbx
	movq	%rdx,-8(%rbp)
	movq	%rdx,%rcx
	call	fpc_ansistr_incr_ref
.Lj899:
	nop
.Lj895:
# [773] pointer(result) := new_ansistring(length(s));
	movq	-8(%rbp),%rcx
	testq	%rcx,%rcx
	je	.Lj900
	movq	-8(%rcx),%rcx
.Lj900:
	call	SYSTEM_$$_NEW_ANSISTRING$INT64$$POINTER
	movq	%rax,(%rbx)
# [774] setlength(result, length(s));
	movq	-8(%rbp),%rdx
	testq	%rdx,%rdx
	je	.Lj901
	movq	-8(%rdx),%rdx
.Lj901:
	movq	%rbx,%rcx
	xorl	%r8d,%r8d
	call	fpc_ansistr_setlength
# [775] move(s[1], result[1], length(s));
	movq	%rbx,%rcx
	call	fpc_ansistr_unique
	movq	%rax,%rdx
	movq	-8(%rbp),%r8
	testq	%r8,%r8
	je	.Lj902
	movq	-8(%r8),%r8
.Lj902:
	movq	-8(%rbp),%rcx
	call	SYSTEM_$$_MOVE$formal$formal$QWORD
.Lj897:
	nop
.Lj896:
	movq	%rbp,%rcx
	call	SYSTEM$_$MAKEUNIQUEANSISTRING$ANSISTRING$$ANSISTRING_$$_fin$00000265
	movq	-16(%rbp),%rbx
	leaq	(%rbp),%rsp
	popq	%rbp
	ret
.seh_handler __FPC_specific_handler,@unwind
.seh_handlerdata
	.long	1
	.long	0
	.rva	.Lj895
	.rva	.Lj896
	.rva	SYSTEM$_$MAKEUNIQUEANSISTRING$ANSISTRING$$ANSISTRING_$$_fin$00000265

.section .text.n_system_$$_makeuniqueansistring$ansistring$$ansistring,"x"
.seh_endproc
.Lc522:

.section .text.n_system$_$make_unique_ansistring$ansistring$$ansistring_$$_fin$00000267,"x"
	.balign 16,0x90
SYSTEM$_$MAKE_UNIQUE_ANSISTRING$ANSISTRING$$ANSISTRING_$$_fin$00000267:
.Lc526:
.seh_proc SYSTEM$_$MAKE_UNIQUE_ANSISTRING$ANSISTRING$$ANSISTRING_$$_fin$00000267
# [780] end;
	pushq	%rbp
.seh_pushreg %rbp
.Lc528:
.Lc529:
	movq	%rcx,%rbp
.Lc530:
	leaq	-32(%rsp),%rsp
.seh_stackalloc 32
.seh_endprologue
# [778] begin
	leaq	-16(%rbp),%rcx
	call	fpc_ansistr_decr_ref
	leaq	-8(%rbp),%rcx
	call	fpc_ansistr_decr_ref
	nop
	leaq	32(%rsp),%rsp
	popq	%rbp
	ret
.seh_endproc
.Lc527:

.section .text.n_system_$$_make_unique_ansistring$ansistring$$ansistring,"x"
	.balign 16,0x90
.globl	SYSTEM_$$_MAKE_UNIQUE_ANSISTRING$ANSISTRING$$ANSISTRING
SYSTEM_$$_MAKE_UNIQUE_ANSISTRING$ANSISTRING$$ANSISTRING:
.Lc531:
# Temps allocated between rbp-16 and rbp-8
.seh_proc SYSTEM_$$_MAKE_UNIQUE_ANSISTRING$ANSISTRING$$ANSISTRING
	pushq	%rbp
.seh_pushreg %rbp
.Lc533:
.Lc534:
	movq	%rsp,%rbp
.Lc535:
	leaq	-48(%rsp),%rsp
.seh_stackalloc 48
.seh_endprologue
# Var s located at rbp-8, size=OS_64
	movq	%rcx,%rax
# Var $result located in register rax
	movq	%rdx,-8(%rbp)
	movq	%rdx,%rcx
	call	fpc_ansistr_incr_ref
	movq	$0,-16(%rbp)
.Lj911:
	nop
.Lj907:
# [779] makeuniqueansistring(s);
	movq	-8(%rbp),%rdx
	leaq	-16(%rbp),%rcx
	call	SYSTEM_$$_MAKEUNIQUEANSISTRING$ANSISTRING$$ANSISTRING
	leaq	-16(%rbp),%rcx
	call	fpc_ansistr_decr_ref
.Lj909:
	nop
.Lj908:
	movq	%rbp,%rcx
	call	SYSTEM$_$MAKE_UNIQUE_ANSISTRING$ANSISTRING$$ANSISTRING_$$_fin$00000267
	nop
	leaq	(%rbp),%rsp
	popq	%rbp
	ret
.seh_handler __FPC_specific_handler,@unwind
.seh_handlerdata
	.long	1
	.long	0
	.rva	.Lj907
	.rva	.Lj908
	.rva	SYSTEM$_$MAKE_UNIQUE_ANSISTRING$ANSISTRING$$ANSISTRING_$$_fin$00000267

.section .text.n_system_$$_make_unique_ansistring$ansistring$$ansistring,"x"
.seh_endproc
.Lc532:

.section .text.n_system$_$makeuniqueansistring$pointer$$pointer_$$_fin$00000268,"x"
	.balign 16,0x90
SYSTEM$_$MAKEUNIQUEANSISTRING$POINTER$$POINTER_$$_fin$00000268:
.Lc536:
.seh_proc SYSTEM$_$MAKEUNIQUEANSISTRING$POINTER$$POINTER_$$_fin$00000268
# [800] end;
	pushq	%rbp
.seh_pushreg %rbp
.Lc538:
.Lc539:
	movq	%rcx,%rbp
.Lc540:
	leaq	-32(%rsp),%rsp
.seh_stackalloc 32
.seh_endprologue
	leaq	-16(%rbp),%rcx
	call	fpc_ansistr_decr_ref
# [795] begin
	nop
	leaq	32(%rsp),%rsp
	popq	%rbp
	ret
.seh_endproc
.Lc537:

.section .text.n_system_$$_makeuniqueansistring$pointer$$pointer,"x"
	.balign 16,0x90
.globl	SYSTEM_$$_MAKEUNIQUEANSISTRING$POINTER$$POINTER
SYSTEM_$$_MAKEUNIQUEANSISTRING$POINTER$$POINTER:
.Lc541:
# Temps allocated between rbp-24 and rbp-16
.seh_proc SYSTEM_$$_MAKEUNIQUEANSISTRING$POINTER$$POINTER
	pushq	%rbp
.seh_pushreg %rbp
.Lc543:
.Lc544:
	movq	%rsp,%rbp
.Lc545:
	leaq	-64(%rsp),%rsp
.seh_stackalloc 64
	movq	%rbx,-24(%rbp)
.seh_savereg %rbx, 40
.seh_endprologue
# Var $result located in register rbx
# Var a located at rbp-8, size=OS_64
# Var s located at rbp-16, size=OS_64
# Var p located in register rcx
	movq	$0,-16(%rbp)
.Lj920:
	nop
.Lj916:
# [796] a := PAnsiRec(p-AnsiFirstOff);
	leaq	-32(%rcx),%rax
	movq	%rax,-8(%rbp)
# [797] pointer(s) := new_ansistring(a^.len);
	movq	24(%rax),%rcx
	call	SYSTEM_$$_NEW_ANSISTRING$INT64$$POINTER
	movq	%rax,-16(%rbp)
# [798] move(a, s[1], a^.len);
	leaq	-16(%rbp),%rcx
	call	fpc_ansistr_unique
	movq	%rax,%rdx
	movq	-8(%rbp),%rax
	movq	24(%rax),%r8
	leaq	-8(%rbp),%rcx
	call	SYSTEM_$$_MOVE$formal$formal$QWORD
# [799] pointer(result) := pointer(a+AnsiFirstOff);
	movq	-8(%rbp),%rax
	addq	$1024,%rax
	movq	%rax,%rbx
.Lj918:
	nop
.Lj917:
	movq	%rbp,%rcx
	call	SYSTEM$_$MAKEUNIQUEANSISTRING$POINTER$$POINTER_$$_fin$00000268
	movq	%rbx,%rax
	movq	-24(%rbp),%rbx
	leaq	(%rbp),%rsp
	popq	%rbp
	ret
.seh_handler __FPC_specific_handler,@unwind
.seh_handlerdata
	.long	1
	.long	0
	.rva	.Lj916
	.rva	.Lj917
	.rva	SYSTEM$_$MAKEUNIQUEANSISTRING$POINTER$$POINTER_$$_fin$00000268

.section .text.n_system_$$_makeuniqueansistring$pointer$$pointer,"x"
.seh_endproc
.Lc542:

.section .text.n_system_$$_make_unique_ansistring$pointer$$pointer,"x"
	.balign 16,0x90
.globl	SYSTEM_$$_MAKE_UNIQUE_ANSISTRING$POINTER$$POINTER
SYSTEM_$$_MAKE_UNIQUE_ANSISTRING$POINTER$$POINTER:
.Lc546:
.seh_proc SYSTEM_$$_MAKE_UNIQUE_ANSISTRING$POINTER$$POINTER
# [802] begin
	leaq	-40(%rsp),%rsp
.Lc548:
.seh_stackalloc 40
.seh_endprologue
# Var $result located in register rax
# Var p located in register rcx
# Var p located in register rcx
# [803] result := makeuniqueansistring(p);
	call	SYSTEM_$$_MAKEUNIQUEANSISTRING$POINTER$$POINTER
# Var $result located in register rax
# [804] end;
	nop
	leaq	40(%rsp),%rsp
	ret
.seh_endproc
.Lc547:

.section .text.n_system_$$_atoi_exp$pansichar$$longint,"x"
	.balign 16,0x90
.globl	SYSTEM_$$_ATOI_EXP$PANSICHAR$$LONGINT
SYSTEM_$$_ATOI_EXP$PANSICHAR$$LONGINT:
.Lc549:
# Var $result located in register eax
# Var i located in register eax
# Var c located in register r9b
# Var str located in register rcx
# [820] begin
# Var $result located in register eax
# [821] result := 0;
	xorl	%eax,%eax
# Var i located in register r8d
# [822] i := 0;
	xorl	%r8d,%r8d
	.balign 8,0x90
.Lj925:
# [824] c := (str+i)^;
	movslq	%r8d,%rdx
	addq	%rcx,%rdx
	movb	(%rdx),%r9b
# [825] if c = #0 then break;
	testb	%r9b,%r9b
	je	.Lj927
	.balign 4,0x90
# [826] inc(i);
	addl	$1,%r8d
# [827] result := result*10 + ord(c)-ord('0');
	imull	$10,%eax,%r10d
	movzbl	%r9b,%edx
	addl	%r10d,%edx
	subl	$48,%edx
	movl	%edx,%eax
# [823] while true do begin
	jmp	.Lj925
.Lj927:
# [829] end;
	ret
.Lc550:

.section .text.n_system_$$_atoi$pansichar$$longint,"x"
	.balign 16,0x90
.globl	SYSTEM_$$_ATOI$PANSICHAR$$LONGINT
SYSTEM_$$_ATOI$PANSICHAR$$LONGINT:
.Lc551:
.seh_proc SYSTEM_$$_ATOI$PANSICHAR$$LONGINT
# [831] begin
	leaq	-40(%rsp),%rsp
.Lc553:
.seh_stackalloc 40
.seh_endprologue
# Var $result located in register eax
# Var str located in register rcx
# Var str located in register rcx
# [832] result := atoi_exp(str);
	call	SYSTEM_$$_ATOI_EXP$PANSICHAR$$LONGINT
# Var $result located in register eax
# [833] end;
	nop
	leaq	40(%rsp),%rsp
	ret
.seh_endproc
.Lc552:

.section .text.n_system_$$_itoa_exp$longint$longint$$pansichar,"x"
	.balign 16,0x90
.globl	SYSTEM_$$_ITOA_EXP$LONGINT$LONGINT$$PANSICHAR
SYSTEM_$$_ITOA_EXP$LONGINT$LONGINT$$PANSICHAR:
.Lc554:
.seh_proc SYSTEM_$$_ITOA_EXP$LONGINT$LONGINT$$PANSICHAR
# [865] begin
	pushq	%rbx
.seh_pushreg %rbx
	pushq	%rdi
.seh_pushreg %rdi
	pushq	%rsi
.seh_pushreg %rsi
	pushq	%r12
.seh_pushreg %r12
	leaq	-40(%rsp),%rsp
.Lc556:
.seh_stackalloc 40
.seh_endprologue
# Var $result located at rsp+32, size=OS_64
# Var i located in register eax
# Var rem located in register r8d
# Var neg located in register al
	movl	%ecx,%ebx
# Var num located in register ebx
	movl	%edx,%esi
# Var base located in register esi
# Var neg located in register dil
# [847] procedure reverse(str: pansichar; len: integer);
	movb	TC_$SYSTEM$_$ITOA_EXP$LONGINT$LONGINT$$PANSICHAR_$$_defaultneg(%rip),%dil
# [866] result := '0';
	leaq	.Ld29(%rip),%rax
	movq	%rax,32(%rsp)
# [868] if num = 0 then exit;
	testl	%ebx,%ebx
	je	.Lj932
	.balign 4,0x90
# [870] if num < 0 then begin
	testl	%ebx,%ebx
	jnl	.Lj939
# [872] if base <> 10 then exit;
	cmpl	$10,%esi
	jne	.Lj932
	.balign 4,0x90
# [873] neg := true;
	movb	$1,%dil
# [874] num := -num;
	movslq	%ebx,%rax
	negq	%rax
	movl	%eax,%ebx
	.balign 4,0x90
.Lj939:
# [877] result := AllocMem(32);
	movl	$32,%ecx
	call	SYSTEM_$$_ALLOCMEM$QWORD$$POINTER
	movq	%rax,32(%rsp)
# Var i located in register r12d
# [879] i := 0;
	xorl	%r12d,%r12d
# [880] while num <> 0 do begin
	jmp	.Lj943
	.balign 8,0x90
.Lj942:
# [881] rem := num mod base;
	movslq	%ebx,%rax
	movslq	%esi,%rcx
	cqto
	idivq	%rcx
	movl	%edx,%r8d
# [882] if rem > 9 then result[i] := chr((rem-10)+ord('a')) else result[i] := chr(rem+ord('0'));
	cmpl	$9,%r8d
	jng	.Lj946
	movq	32(%rsp),%rcx
	movslq	%r12d,%rax
	leal	-10(%r8d),%edx
	addl	$97,%edx
	movb	%dl,(%rcx,%rax,1)
	jmp	.Lj947
.Lj946:
	movq	32(%rsp),%rcx
	movslq	%r12d,%rax
	leal	48(%r8d),%edx
	movb	%dl,(%rcx,%rax,1)
.Lj947:
# [883] inc(i);
	addl	$1,%r12d
# [884] num := num div base;
	movslq	%ebx,%rax
	movslq	%esi,%rcx
	cqto
	idivq	%rcx
	movl	%eax,%ebx
.Lj943:
	testl	%ebx,%ebx
	jne	.Lj942
# [887] if neg then begin
	testb	%dil,%dil
	je	.Lj949
# [888] result[i] := '-';
	movq	32(%rsp),%rdx
	movslq	%r12d,%rax
	movb	$45,(%rdx,%rax,1)
# [889] inc(i);
	addl	$1,%r12d
	.balign 4,0x90
.Lj949:
# [892] result[i] := #0;
	movq	32(%rsp),%rdx
	movslq	%r12d,%rax
	movb	$0,(%rdx,%rax,1)
# [894] ReAllocMem(result, 32);
	leaq	32(%rsp),%rcx
	movl	$32,%edx
	call	SYSTEM_$$_REALLOCMEM$POINTER$QWORD$$POINTER
# [896] reverse(result, i);
	movl	%r12d,%r8d
# Var i located in register r8d
	movq	32(%rsp),%rdx
	movq	%rsp,%rcx
	call	SYSTEM$_$ITOA_EXP$LONGINT$LONGINT$$PANSICHAR_$$_REVERSE$PANSICHAR$LONGINT
.Lj932:
# [897] end;
	movq	32(%rsp),%rax
	nop
	leaq	40(%rsp),%rsp
	popq	%r12
	popq	%rsi
	popq	%rdi
	popq	%rbx
	ret
.seh_endproc
.Lc555:

.section .text.n_system$_$itoa_exp$longint$longint$$pansichar_$$_reverse$pansichar$longint,"x"
	.balign 16,0x90
SYSTEM$_$ITOA_EXP$LONGINT$LONGINT$$PANSICHAR_$$_REVERSE$PANSICHAR$LONGINT:
.Lc557:
.seh_proc SYSTEM$_$ITOA_EXP$LONGINT$LONGINT$$PANSICHAR_$$_REVERSE$PANSICHAR$LONGINT
# [851] begin
	leaq	-8(%rsp),%rsp
.Lc559:
.seh_stackalloc 8
.seh_endprologue
# Var $parentfp located at rsp+0, size=OS_64
# Var st located in register eax
# Var en located in register eax
# Var tmp located in register r11b
	movq	%rcx,(%rsp)
# Var str located in register rdx
# Var len located in register r8d
# Var st located in register r9d
# [852] st := 0;
	xorl	%r9d,%r9d
# [853] en := len-1;
	leal	-1(%r8d),%eax
# Var en located in register eax
# [854] while st < en do begin
	jmp	.Lj951
	.balign 8,0x90
.Lj950:
# [855] tmp := str[st];
	movslq	%r9d,%rcx
	movb	(%rdx,%rcx,1),%r11b
	movq	%rdx,%rcx
# [856] str[st] := str[en];
	movslq	%r9d,%r8
	movslq	%eax,%r10
	movb	(%rcx,%r10,1),%r10b
	movb	%r10b,(%rcx,%r8,1)
# [857] str[en] := tmp;
	movslq	%eax,%rcx
	movb	%r11b,(%rdx,%rcx,1)
# [858] inc(st);
	addl	$1,%r9d
# [859] dec(en);
	subl	$1,%eax
.Lj951:
	cmpl	%r9d,%eax
	jg	.Lj950
# [861] end;
	leaq	8(%rsp),%rsp
	ret
.seh_endproc
.Lc558:

.section .text.n_system_$$_itoa$longint$longint$$pansichar,"x"
	.balign 16,0x90
.globl	SYSTEM_$$_ITOA$LONGINT$LONGINT$$PANSICHAR
SYSTEM_$$_ITOA$LONGINT$LONGINT$$PANSICHAR:
.Lc560:
.seh_proc SYSTEM_$$_ITOA$LONGINT$LONGINT$$PANSICHAR
# [899] begin
	leaq	-40(%rsp),%rsp
.Lc562:
.seh_stackalloc 40
.seh_endprologue
# Var $result located in register rax
# Var num located in register ecx
# Var base located in register edx
# Var base located in register edx
# Var num located in register ecx
# [900] result := itoa_exp(num, base);
	call	SYSTEM_$$_ITOA_EXP$LONGINT$LONGINT$$PANSICHAR
# Var $result located in register rax
# [901] end;
	nop
	leaq	40(%rsp),%rsp
	ret
.seh_endproc
.Lc561:

.section .text.n_system_$$_utf8decode$pansichar$pansichar$longword$byte$$boolean,"x"
	.balign 16,0x90
.globl	SYSTEM_$$_UTF8DECODE$PANSICHAR$PANSICHAR$LONGWORD$BYTE$$BOOLEAN
SYSTEM_$$_UTF8DECODE$PANSICHAR$PANSICHAR$LONGWORD$BYTE$$BOOLEAN:
.Lc563:
.seh_proc SYSTEM_$$_UTF8DECODE$PANSICHAR$PANSICHAR$LONGWORD$BYTE$$BOOLEAN
# [unicode.inc]
# [39] begin
	pushq	%rbx
.seh_pushreg %rbx
.seh_endprologue
# Var $result located in register al
# Var cur located in register rcx
# Var curend located in register rdx
# Var codepoint located in register r8
# Var size located in register r9
# [40] if (curend <> nil) and not (cur < curend) then exit(false);
	testq	%rdx,%rdx
	je	.Lj958
	cmpq	(%rcx),%rdx
	jnbe	.Lj958
	xorb	%al,%al
	jmp	.Lj955
	.balign 4,0x90
.Lj958:
# [41] if cur^ = #0 then exit(false);
	movq	(%rcx),%r10
	cmpb	$0,(%r10)
	jne	.Lj961
	xorb	%al,%al
	jmp	.Lj955
	.balign 4,0x90
.Lj961:
# [42] if (byte(cur^) and $f0 = $f0) then begin
	movq	(%rcx),%r10
	movb	(%r10),%r10b
	andb	$240,%r10b
	cmpb	$240,%r10b
	jne	.Lj963
# [44] if (curend <> nil) and (cur+4 > curend) then exit(false);
	testq	%rdx,%rdx
	je	.Lj965
	movq	(%rcx),%r10
	addq	$4,%r10
	cmpq	%rdx,%r10
	jna	.Lj965
	xorb	%al,%al
	jmp	.Lj955
	.balign 4,0x90
.Lj965:
	movq	(%rcx),%rbx
# [46] or ((byte((cur+1)^) and $3f) shl 12)
	movw	1(%rbx),%r10w
	andw	$63,%r10w
	movswl	%r10w,%r10d
	shll	$12,%r10d
# [45] codepoint := ((byte(cur^) and $07) shl 18)
	movw	(%rbx),%r11w
	andw	$7,%r11w
	movswl	%r11w,%r11d
	shll	$18,%r11d
	orl	%r11d,%r10d
# [47] or ((byte((cur+2)^) and $3f) shl 6)
	movw	2(%rbx),%r11w
	andw	$63,%r11w
	movswl	%r11w,%r11d
	shll	$6,%r11d
	orl	%r11d,%r10d
# [48] or ((byte((cur+3)^) and $3f));
	movw	3(%rbx),%r11w
	andw	$63,%r11w
	movswl	%r11w,%r11d
	orl	%r11d,%r10d
	movl	%r10d,(%r8)
# [49] size := 4;
	movb	$4,(%r9)
	jmp	.Lj967
.Lj963:
# [51] else if (byte(cur^) and $e0 = $e0) then begin
	movq	(%rcx),%r10
	movb	(%r10),%r10b
	andb	$224,%r10b
	cmpb	$224,%r10b
	jne	.Lj969
# [53] if (curend <> nil) and (cur+3 > curend) then exit(false);
	testq	%rdx,%rdx
	je	.Lj971
	movq	(%rcx),%r10
	addq	$3,%r10
	cmpq	%rdx,%r10
	jna	.Lj971
	xorb	%al,%al
	jmp	.Lj955
	.balign 4,0x90
.Lj971:
	movq	(%rcx),%rbx
# [55] or ((byte((cur+1)^) and $3f) shl 6)
	movw	1(%rbx),%r10w
	andw	$63,%r10w
	movswl	%r10w,%r10d
	shll	$6,%r10d
# [54] codepoint := ((byte(cur^) and $0f) shl 12)
	movw	(%rbx),%r11w
	andw	$15,%r11w
	movswl	%r11w,%r11d
	shll	$12,%r11d
	orl	%r11d,%r10d
# [56] or ((byte((cur+2)^) and $3f));
	movw	2(%rbx),%r11w
	andw	$63,%r11w
	movswl	%r11w,%r11d
	orl	%r11d,%r10d
	movl	%r10d,(%r8)
# [57] size := 3;
	movb	$3,(%r9)
	jmp	.Lj973
.Lj969:
# [59] else if (byte(cur^) and $c0 = $c0) then begin
	movq	(%rcx),%r10
	movb	(%r10),%r10b
	andb	$192,%r10b
	cmpb	$192,%r10b
	jne	.Lj975
# [61] if (curend <> nil) and (cur+2 > curend) then exit(false);
	testq	%rdx,%rdx
	je	.Lj977
	movq	(%rcx),%r10
	addq	$2,%r10
	cmpq	%rdx,%r10
	jna	.Lj977
	xorb	%al,%al
	jmp	.Lj955
	.balign 4,0x90
.Lj977:
	movq	(%rcx),%r10
# [63] or ((byte((cur+1)^) and $3f));
	movw	1(%r10),%dx
	andw	$63,%dx
	movswl	%dx,%edx
# [62] codepoint := ((byte(cur^) and $1f) shl 6)
	movw	(%r10),%r10w
	andw	$31,%r10w
	movswl	%r10w,%r10d
	shll	$6,%r10d
	orl	%r10d,%edx
	movl	%edx,(%r8)
# [64] size := 2;
	movb	$2,(%r9)
	jmp	.Lj979
.Lj975:
# [68] codepoint := byte(cur^);
	movq	(%rcx),%rdx
	movzbl	(%rdx),%edx
	movl	%edx,(%r8)
# [69] size := 1;
	movb	$1,(%r9)
.Lj979:
.Lj973:
.Lj967:
# [71] inc(cur, size);
	movzbl	(%r9),%edx
	addq	%rdx,(%rcx)
# [72] result := true;
	movb	$1,%al
.Lj955:
# [73] end;
	popq	%rbx
	ret
.seh_endproc
.Lc564:

.section .text.n_system$_$utf8encode$longword$$ansistring_$$_fin$0000026e,"x"
	.balign 16,0x90
SYSTEM$_$UTF8ENCODE$LONGWORD$$ANSISTRING_$$_fin$0000026E:
.Lc565:
.seh_proc SYSTEM$_$UTF8ENCODE$LONGWORD$$ANSISTRING_$$_fin$0000026E
# [94] end;
	pushq	%rbp
.seh_pushreg %rbp
.Lc567:
.Lc568:
	movq	%rcx,%rbp
.Lc569:
	leaq	-32(%rsp),%rsp
.seh_stackalloc 32
.seh_endprologue
# [76] begin
	leaq	-8(%rbp),%rcx
	call	fpc_ansistr_decr_ref
	nop
	leaq	32(%rsp),%rsp
	popq	%rbp
	ret
.seh_endproc
.Lc566:

.section .text.n_system_$$_utf8encode$longword$$ansistring,"x"
	.balign 16,0x90
.globl	SYSTEM_$$_UTF8ENCODE$LONGWORD$$ANSISTRING
SYSTEM_$$_UTF8ENCODE$LONGWORD$$ANSISTRING:
.Lc570:
# Temps allocated between rbp-24 and rbp+0
.seh_proc SYSTEM_$$_UTF8ENCODE$LONGWORD$$ANSISTRING
	pushq	%rbp
.seh_pushreg %rbp
.Lc572:
.Lc573:
	movq	%rsp,%rbp
.Lc574:
	leaq	-64(%rsp),%rsp
.seh_stackalloc 64
	movq	%rbx,-24(%rbp)
	movq	%rsi,-16(%rbp)
.seh_savereg %rbx, 40
.seh_savereg %rsi, 48
.seh_endprologue
	movq	%rcx,%rbx
# Var $result located in register rbx
	movl	%edx,%esi
# Var codepoint located in register esi
	movq	$0,-8(%rbp)
.Lj988:
	nop
.Lj984:
# [77] if codepoint <= $7F then
	cmpl	$127,%esi
	jnbe	.Lj990
# [78] result := ansichar(codepoint)
	movzbl	%sil,%edx
	movq	%rbx,%rcx
	xorl	%r8d,%r8d
	call	fpc_char_to_ansistr
	jmp	.Lj991
.Lj990:
# [79] else if codepoint <= $7ff then begin
	cmpl	$2047,%esi
	jnbe	.Lj993
# [80] result := ansichar($c0 or (codepoint shr 6));
	movl	%esi,%edx
	shrl	$6,%edx
	orl	$192,%edx
	andl	$255,%edx
	movq	%rbx,%rcx
	xorl	%r8d,%r8d
	call	fpc_char_to_ansistr
# [81] result := result + ansichar($80 or (codepoint and $3f));
	movl	%esi,%edx
	andl	$63,%edx
	orl	$128,%edx
	andl	$255,%edx
	xorl	%r8d,%r8d
	leaq	-8(%rbp),%rcx
	call	fpc_char_to_ansistr
	movq	-8(%rbp),%r8
	movq	(%rbx),%rdx
	movq	%rbx,%rcx
	xorl	%r9d,%r9d
	call	fpc_ansistr_concat
	jmp	.Lj994
.Lj993:
# [83] else if codepoint <= $ffff then begin
	cmpl	$65535,%esi
	jnbe	.Lj996
# [84] result := ansichar($e0 or (codepoint shr 12));
	movl	%esi,%edx
	shrl	$12,%edx
	orl	$224,%edx
	andl	$255,%edx
	movq	%rbx,%rcx
	xorl	%r8d,%r8d
	call	fpc_char_to_ansistr
# [85] result := result + ansichar($80 or ((codepoint shr 6) and $3f));
	movl	%esi,%edx
	shrl	$6,%edx
	andl	$63,%edx
	orl	$128,%edx
	andl	$255,%edx
	xorl	%r8d,%r8d
	leaq	-8(%rbp),%rcx
	call	fpc_char_to_ansistr
	movq	-8(%rbp),%r8
	movq	(%rbx),%rdx
	movq	%rbx,%rcx
	xorl	%r9d,%r9d
	call	fpc_ansistr_concat
# [86] result := result + ansichar($80 or (codepoint and $3f));
	movl	%esi,%edx
	andl	$63,%edx
	orl	$128,%edx
	andl	$255,%edx
	xorl	%r8d,%r8d
	leaq	-8(%rbp),%rcx
	call	fpc_char_to_ansistr
	movq	-8(%rbp),%r8
	movq	(%rbx),%rdx
	movq	%rbx,%rcx
	xorl	%r9d,%r9d
	call	fpc_ansistr_concat
	jmp	.Lj997
.Lj996:
# [89] result := ansichar($f0 or (codepoint shr 18));
	movl	%esi,%edx
	shrl	$18,%edx
	orl	$240,%edx
	andl	$255,%edx
	movq	%rbx,%rcx
	xorl	%r8d,%r8d
	call	fpc_char_to_ansistr
# [90] result := result + ansichar($80 or ((codepoint shr 12) and $3f));
	movl	%esi,%edx
	shrl	$12,%edx
	andl	$63,%edx
	orl	$128,%edx
	andl	$255,%edx
	xorl	%r8d,%r8d
	leaq	-8(%rbp),%rcx
	call	fpc_char_to_ansistr
	movq	-8(%rbp),%r8
	movq	(%rbx),%rdx
	movq	%rbx,%rcx
	xorl	%r9d,%r9d
	call	fpc_ansistr_concat
# [91] result := result + ansichar($80 or ((codepoint shr 6) and $3f));
	movl	%esi,%edx
	shrl	$6,%edx
	andl	$63,%edx
	orl	$128,%edx
	andl	$255,%edx
	xorl	%r8d,%r8d
	leaq	-8(%rbp),%rcx
	call	fpc_char_to_ansistr
	movq	-8(%rbp),%r8
	movq	(%rbx),%rdx
	movq	%rbx,%rcx
	xorl	%r9d,%r9d
	call	fpc_ansistr_concat
# [92] result := result + ansichar($80 or (codepoint and $3f));
	movl	%esi,%edx
	andl	$63,%edx
	orl	$128,%edx
	andl	$255,%edx
	xorl	%r8d,%r8d
	leaq	-8(%rbp),%rcx
	call	fpc_char_to_ansistr
	movq	-8(%rbp),%r8
	movq	(%rbx),%rdx
	movq	%rbx,%rcx
	xorl	%r9d,%r9d
	call	fpc_ansistr_concat
.Lj997:
.Lj994:
.Lj991:
.Lj986:
	nop
.Lj985:
	movq	%rbp,%rcx
	call	SYSTEM$_$UTF8ENCODE$LONGWORD$$ANSISTRING_$$_fin$0000026E
	movq	-24(%rbp),%rbx
	movq	-16(%rbp),%rsi
	leaq	(%rbp),%rsp
	popq	%rbp
	ret
.seh_handler __FPC_specific_handler,@unwind
.seh_handlerdata
	.long	1
	.long	0
	.rva	.Lj984
	.rva	.Lj985
	.rva	SYSTEM$_$UTF8ENCODE$LONGWORD$$ANSISTRING_$$_fin$0000026E

.section .text.n_system_$$_utf8encode$longword$$ansistring,"x"
.seh_endproc
.Lc571:

.section .text.n_system_$$_utf16decode$pwidechar$pwidechar$longword$byte$$boolean,"x"
	.balign 16,0x90
.globl	SYSTEM_$$_UTF16DECODE$PWIDECHAR$PWIDECHAR$LONGWORD$BYTE$$BOOLEAN
SYSTEM_$$_UTF16DECODE$PWIDECHAR$PWIDECHAR$LONGWORD$BYTE$$BOOLEAN:
.Lc575:
# Var $result located in register al
# Var cur located in register rcx
# Var curend located in register rdx
# Var codepoint located in register r8
# Var size located in register r9
# [97] begin
# [98] if (curend <> nil) and not (cur < curend) then exit(false);
	testq	%rdx,%rdx
	je	.Lj1001
	cmpq	(%rcx),%rdx
	jnbe	.Lj1001
	xorb	%al,%al
	ret
	.balign 4,0x90
.Lj1001:
# [99] if cur^ = #0 then exit(false);
	movq	(%rcx),%r10
	cmpw	$0,(%r10)
	jne	.Lj1004
	xorb	%al,%al
	ret
	.balign 4,0x90
.Lj1004:
# [100] codepoint := dword(cur^);
	movq	(%rcx),%r10
	movzwl	(%r10),%r10d
	movl	%r10d,(%r8)
# [101] size := 1;
	movb	$1,(%r9)
	movl	(%r8),%r10d
# [103] if (codepoint >= $d800) and (codepoint <= $dbff) then begin
	cmpl	$55296,%r10d
	jnae	.Lj1006
	cmpl	$56319,%r10d
	jnbe	.Lj1006
# [104] if (curend = nil) or ((cur+1 <= curend) and (dword((cur+1)^) >= $dc00) and (dword((cur+1)^) <= $dfff)) then begin
	testq	%rdx,%rdx
	je	.Lj1008
	movq	(%rcx),%r10
	addq	$2,%r10
	cmpq	%r10,%rdx
	jnae	.Lj1010
	movzwl	(%r10),%edx
	cmpl	$56320,%edx
	jnae	.Lj1010
	cmpl	$57343,%edx
	jnbe	.Lj1010
.Lj1008:
# [105] codepoint := ((codepoint-$d800) shl 10)+(dword((cur+1)^)-$dc00)+$10000;
	movq	(%rcx),%rdx
	movl	2(%rdx),%edx
	andl	$65535,%edx
	subq	$56320,%rdx
	movl	(%r8),%r10d
	subq	$55296,%r10
	shlq	$10,%r10
	addq	%r10,%rdx
	addq	$65536,%rdx
	movl	%edx,(%r8)
# [106] size := 2;
	movb	$2,(%r9)
	.balign 4,0x90
.Lj1010:
	.balign 4,0x90
.Lj1006:
# [109] inc(cur, size);
	movzbl	(%r9),%edx
	shlq	$1,%rdx
	addq	%rdx,(%rcx)
# [110] result := true;
	movb	$1,%al
# [111] end;
	ret
.Lc576:

.section .text.n_system$_$utf16encode$longword$$unicodestring_$$_fin$0000026f,"x"
	.balign 16,0x90
SYSTEM$_$UTF16ENCODE$LONGWORD$$UNICODESTRING_$$_fin$0000026F:
.Lc577:
.seh_proc SYSTEM$_$UTF16ENCODE$LONGWORD$$UNICODESTRING_$$_fin$0000026F
# [120] end;
	pushq	%rbp
.seh_pushreg %rbp
.Lc579:
.Lc580:
	movq	%rcx,%rbp
.Lc581:
	leaq	-32(%rsp),%rsp
.seh_stackalloc 32
.seh_endprologue
# [114] begin
	leaq	-8(%rbp),%rcx
	call	fpc_unicodestr_decr_ref
	nop
	leaq	32(%rsp),%rsp
	popq	%rbp
	ret
.seh_endproc
.Lc578:

.section .text.n_system_$$_utf16encode$longword$$unicodestring,"x"
	.balign 16,0x90
.globl	SYSTEM_$$_UTF16ENCODE$LONGWORD$$UNICODESTRING
SYSTEM_$$_UTF16ENCODE$LONGWORD$$UNICODESTRING:
.Lc582:
# Temps allocated between rbp-24 and rbp+0
.seh_proc SYSTEM_$$_UTF16ENCODE$LONGWORD$$UNICODESTRING
	pushq	%rbp
.seh_pushreg %rbp
.Lc584:
.Lc585:
	movq	%rsp,%rbp
.Lc586:
	leaq	-64(%rsp),%rsp
.seh_stackalloc 64
	movq	%rbx,-24(%rbp)
	movq	%rsi,-16(%rbp)
.seh_savereg %rbx, 40
.seh_savereg %rsi, 48
.seh_endprologue
	movq	%rcx,%rbx
# Var $result located in register rbx
	movl	%edx,%esi
# Var codepoint located in register esi
	movq	$0,-8(%rbp)
.Lj1023:
	nop
.Lj1019:
# [115] if codepoint > $ffff then begin
	cmpl	$65535,%esi
	jna	.Lj1025
# [116] result := widechar($d800+((codepoint-$10000) shr 10));
	movl	%esi,%eax
	subq	$65536,%rax
	shrq	$10,%rax
	leaq	55296(%rax),%rdx
	andl	$65535,%edx
	movq	%rbx,%rcx
	call	fpc_uchar_to_unicodestr
# [117] result := result + widechar($dc00+((codepoint-$10000) and $3ff));
	movl	%esi,%eax
	subl	$65536,%eax
	andl	$1023,%eax
	leal	56320(%eax),%edx
	andl	$65535,%edx
	leaq	-8(%rbp),%rcx
	call	fpc_uchar_to_unicodestr
	movq	-8(%rbp),%r8
	movq	(%rbx),%rdx
	movq	%rbx,%rcx
	call	fpc_unicodestr_concat
	jmp	.Lj1026
.Lj1025:
# [119] result := widechar(codepoint);
	movzwl	%si,%edx
	movq	%rbx,%rcx
	call	fpc_uchar_to_unicodestr
.Lj1026:
.Lj1021:
	nop
.Lj1020:
	movq	%rbp,%rcx
	call	SYSTEM$_$UTF16ENCODE$LONGWORD$$UNICODESTRING_$$_fin$0000026F
	movq	-24(%rbp),%rbx
	movq	-16(%rbp),%rsi
	leaq	(%rbp),%rsp
	popq	%rbp
	ret
.seh_handler __FPC_specific_handler,@unwind
.seh_handlerdata
	.long	1
	.long	0
	.rva	.Lj1019
	.rva	.Lj1020
	.rva	SYSTEM$_$UTF16ENCODE$LONGWORD$$UNICODESTRING_$$_fin$0000026F

.section .text.n_system_$$_utf16encode$longword$$unicodestring,"x"
.seh_endproc
.Lc583:

.section .text.n_system$_$utf8toutf16$ansistring$$unicodestring_$$_fin$00000270,"x"
	.balign 16,0x90
SYSTEM$_$UTF8TOUTF16$ANSISTRING$$UNICODESTRING_$$_fin$00000270:
.Lc587:
.seh_proc SYSTEM$_$UTF8TOUTF16$ANSISTRING$$UNICODESTRING_$$_fin$00000270
# [144] end;
	pushq	%rbp
.seh_pushreg %rbp
.Lc589:
.Lc590:
	movq	%rcx,%rbp
.Lc591:
	leaq	-32(%rsp),%rsp
.seh_stackalloc 32
.seh_endprologue
# [128] begin
	leaq	-48(%rbp),%rcx
	call	fpc_unicodestr_decr_ref
	leaq	-40(%rbp),%rcx
	call	fpc_unicodestr_decr_ref
	leaq	-8(%rbp),%rcx
	call	fpc_ansistr_decr_ref
	nop
	leaq	32(%rsp),%rsp
	popq	%rbp
	ret
.seh_endproc
.Lc588:

.section .text.n_system_$$_utf8toutf16$ansistring$$unicodestring,"x"
	.balign 16,0x90
.globl	SYSTEM_$$_UTF8TOUTF16$ANSISTRING$$UNICODESTRING
SYSTEM_$$_UTF8TOUTF16$ANSISTRING$$UNICODESTRING:
.Lc592:
# Temps allocated between rbp-80 and rbp-24
.seh_proc SYSTEM_$$_UTF8TOUTF16$ANSISTRING$$UNICODESTRING
	pushq	%rbp
.seh_pushreg %rbp
.Lc594:
.Lc595:
	movq	%rsp,%rbp
.Lc596:
	leaq	-112(%rsp),%rsp
.seh_stackalloc 112
	movq	%rbx,-80(%rbp)
	movq	%rdi,-72(%rbp)
	movq	%rsi,-64(%rbp)
	movq	%r12,-56(%rbp)
.seh_savereg %rbx, 32
.seh_savereg %rdi, 40
.seh_savereg %rsi, 48
.seh_savereg %r12, 56
.seh_endprologue
# Var utf8 located at rbp-8, size=OS_64
# Var i located in register edi
# Var cur located at rbp-16, size=OS_64
# Var curend located in register rsi
# Var codepoint located at rbp-20, size=OS_32
# Var size located at rbp-24, size=OS_8
	movq	%rcx,%rbx
# Var $result located in register rbx
	movq	%rdx,-8(%rbp)
	movq	%rdx,%rcx
	call	fpc_ansistr_incr_ref
	movq	$0,-48(%rbp)
	movq	$0,-40(%rbp)
.Lj1035:
	nop
.Lj1031:
	movq	-8(%rbp),%rax
	movq	%rax,-32(%rbp)
# [129] curend := @utf8[1]+length(utf8);
	movq	%rax,%rdx
	testq	%rax,%rax
	je	.Lj1036
	movq	-8(%rdx),%rdx
.Lj1036:
	leaq	(%rax,%rdx),%rsi
# [130] result := '';
	movq	%rbx,%rcx
	xorl	%edx,%edx
	call	fpc_unicodestr_assign
# [131] i := 1;
	movl	$1,%edi
# [132] while i <= length(utf8) do begin
	jmp	.Lj1038
	.balign 8,0x90
.Lj1037:
# [133] cur := @utf8[i];
	movq	-8(%rbp),%rdx
	movslq	%edi,%rax
	leaq	-1(%rdx,%rax,1),%rax
	movq	%rax,-16(%rbp)
# [134] if utf8decode(cur, curend, codepoint, size) then begin
	testq	%rsi,%rsi
	je	.Lj1042
	cmpq	-16(%rbp),%rsi
	jnbe	.Lj1042
	xorb	%cl,%cl
	jmp	.Lj1040
	.balign 4,0x90
.Lj1042:
	movq	-16(%rbp),%rax
	cmpb	$0,(%rax)
	jne	.Lj1045
	xorb	%cl,%cl
	jmp	.Lj1040
	.balign 4,0x90
.Lj1045:
	movq	-16(%rbp),%rax
	movb	(%rax),%al
	andb	$240,%al
	cmpb	$240,%al
	jne	.Lj1047
	testq	%rsi,%rsi
	je	.Lj1049
	movq	-16(%rbp),%rax
	addq	$4,%rax
	cmpq	%rsi,%rax
	jna	.Lj1049
	xorb	%cl,%cl
	jmp	.Lj1040
	.balign 4,0x90
.Lj1049:
	movq	-16(%rbp),%rax
	movw	1(%rax),%ax
	andw	$63,%ax
	movswl	%ax,%eax
	shll	$12,%eax
	movq	-16(%rbp),%rdx
	movw	(%rdx),%dx
	andw	$7,%dx
	movswl	%dx,%edx
	shll	$18,%edx
	orl	%edx,%eax
	movq	-16(%rbp),%rdx
	movw	2(%rdx),%dx
	andw	$63,%dx
	movswl	%dx,%edx
	shll	$6,%edx
	orl	%edx,%eax
	movq	-16(%rbp),%rdx
	movw	3(%rdx),%dx
	andw	$63,%dx
	movswl	%dx,%edx
	orl	%edx,%eax
	movl	%eax,-20(%rbp)
	movb	$4,-24(%rbp)
	jmp	.Lj1051
.Lj1047:
	movq	-16(%rbp),%rax
	movb	(%rax),%al
	andb	$224,%al
	cmpb	$224,%al
	jne	.Lj1053
	testq	%rsi,%rsi
	je	.Lj1055
	movq	-16(%rbp),%rax
	addq	$3,%rax
	cmpq	%rsi,%rax
	jna	.Lj1055
	xorb	%cl,%cl
	jmp	.Lj1040
	.balign 4,0x90
.Lj1055:
	movq	-16(%rbp),%rax
	movw	1(%rax),%ax
	andw	$63,%ax
	movswl	%ax,%eax
	shll	$6,%eax
	movq	-16(%rbp),%rdx
	movw	(%rdx),%dx
	andw	$15,%dx
	movswl	%dx,%edx
	shll	$12,%edx
	orl	%edx,%eax
	movq	-16(%rbp),%rdx
	movw	2(%rdx),%dx
	andw	$63,%dx
	movswl	%dx,%edx
	orl	%edx,%eax
	movl	%eax,-20(%rbp)
	movb	$3,-24(%rbp)
	jmp	.Lj1057
.Lj1053:
	movq	-16(%rbp),%rax
	movb	(%rax),%al
	andb	$192,%al
	cmpb	$192,%al
	jne	.Lj1059
	testq	%rsi,%rsi
	je	.Lj1061
	movq	-16(%rbp),%rax
	addq	$2,%rax
	cmpq	%rsi,%rax
	jna	.Lj1061
	xorb	%cl,%cl
	jmp	.Lj1040
	.balign 4,0x90
.Lj1061:
	movq	-16(%rbp),%rax
	movw	(%rax),%ax
	andw	$31,%ax
	movswl	%ax,%eax
	shll	$6,%eax
	movq	-16(%rbp),%rdx
	movw	1(%rdx),%dx
	andw	$63,%dx
	movswl	%dx,%edx
	orl	%edx,%eax
	movl	%eax,-20(%rbp)
	movb	$2,-24(%rbp)
	jmp	.Lj1063
.Lj1059:
	movq	-16(%rbp),%rax
	movzbl	(%rax),%eax
	movl	%eax,-20(%rbp)
	movb	$1,-24(%rbp)
.Lj1063:
.Lj1057:
.Lj1051:
	movzbl	-24(%rbp),%eax
	addq	%rax,-16(%rbp)
	movb	$1,%cl
.Lj1040:
	testb	%cl,%cl
	je	.Lj1065
# [136] result := result + utf16encode(codepoint);
	movl	-20(%rbp),%r12d
	cmpl	$65535,%r12d
	jna	.Lj1067
	movl	%r12d,%eax
	subq	$65536,%rax
	shrq	$10,%rax
	leaq	55296(%rax),%rdx
	andl	$65535,%edx
	leaq	-40(%rbp),%rcx
	call	fpc_uchar_to_unicodestr
	movl	%r12d,%eax
	subl	$65536,%eax
	andl	$1023,%eax
	leal	56320(%eax),%edx
	andl	$65535,%edx
	leaq	-48(%rbp),%rcx
	call	fpc_uchar_to_unicodestr
	movq	-48(%rbp),%r8
	movq	-40(%rbp),%rdx
	leaq	-40(%rbp),%rcx
	call	fpc_unicodestr_concat
	jmp	.Lj1068
.Lj1067:
	movzwl	%r12w,%edx
	leaq	-40(%rbp),%rcx
	call	fpc_uchar_to_unicodestr
.Lj1068:
	movq	-40(%rbp),%r8
	movq	(%rbx),%rdx
	movq	%rbx,%rcx
	call	fpc_unicodestr_concat
# [137] inc(i, size);
	movzbl	-24(%rbp),%eax
	addl	%eax,%edi
	jmp	.Lj1069
.Lj1065:
# [139] result := result + '?';
	movq	(%rbx),%rdx
	movq	%rbx,%rcx
	leaq	.Ld30(%rip),%r8
	call	fpc_unicodestr_concat
# [140] inc(cur);
	addq	$1,-16(%rbp)
# [141] inc(i);
	addl	$1,%edi
.Lj1069:
.Lj1038:
	movslq	%edi,%rax
	movq	-8(%rbp),%rdx
	testq	%rdx,%rdx
	je	.Lj1070
	movq	-8(%rdx),%rdx
.Lj1070:
	cmpq	%rdx,%rax
	jle	.Lj1037
.Lj1033:
	nop
.Lj1032:
	movq	%rbp,%rcx
	call	SYSTEM$_$UTF8TOUTF16$ANSISTRING$$UNICODESTRING_$$_fin$00000270
	movq	-80(%rbp),%rbx
	movq	-72(%rbp),%rdi
	movq	-64(%rbp),%rsi
	movq	-56(%rbp),%r12
	leaq	(%rbp),%rsp
	popq	%rbp
	ret
.seh_handler __FPC_specific_handler,@unwind
.seh_handlerdata
	.long	1
	.long	0
	.rva	.Lj1031
	.rva	.Lj1032
	.rva	SYSTEM$_$UTF8TOUTF16$ANSISTRING$$UNICODESTRING_$$_fin$00000270

.section .text.n_system_$$_utf8toutf16$ansistring$$unicodestring,"x"
.seh_endproc
.Lc593:

.section .text.n_system$_$utf8toutf16$pansichar$$unicodestring_$$_fin$00000271,"x"
	.balign 16,0x90
SYSTEM$_$UTF8TOUTF16$PANSICHAR$$UNICODESTRING_$$_fin$00000271:
.Lc597:
.seh_proc SYSTEM$_$UTF8TOUTF16$PANSICHAR$$UNICODESTRING_$$_fin$00000271
# [161] end;
	pushq	%rbp
.seh_pushreg %rbp
.Lc599:
.Lc600:
	movq	%rcx,%rbp
.Lc601:
	leaq	-32(%rsp),%rsp
.seh_stackalloc 32
.seh_endprologue
# [152] begin
	leaq	-32(%rbp),%rcx
	call	fpc_unicodestr_decr_ref
	leaq	-24(%rbp),%rcx
	call	fpc_unicodestr_decr_ref
	nop
	leaq	32(%rsp),%rsp
	popq	%rbp
	ret
.seh_endproc
.Lc598:

.section .text.n_system_$$_utf8toutf16$pansichar$$unicodestring,"x"
	.balign 16,0x90
.globl	SYSTEM_$$_UTF8TOUTF16$PANSICHAR$$UNICODESTRING
SYSTEM_$$_UTF8TOUTF16$PANSICHAR$$UNICODESTRING:
.Lc602:
# Temps allocated between rbp-56 and rbp-16
.seh_proc SYSTEM_$$_UTF8TOUTF16$PANSICHAR$$UNICODESTRING
	pushq	%rbp
.seh_pushreg %rbp
.Lc604:
.Lc605:
	movq	%rsp,%rbp
.Lc606:
	leaq	-96(%rsp),%rsp
.seh_stackalloc 96
	movq	%rbx,-56(%rbp)
	movq	%rdi,-48(%rbp)
	movq	%rsi,-40(%rbp)
.seh_savereg %rbx, 40
.seh_savereg %rdi, 48
.seh_savereg %rsi, 56
.seh_endprologue
# Var i located in register edi
# Var cur located at rbp-8, size=OS_64
# Var codepoint located at rbp-12, size=OS_32
# Var size located at rbp-16, size=OS_8
	movq	%rcx,%rbx
# Var $result located in register rbx
# Var utf8 located in register rdx
	movq	$0,-32(%rbp)
	movq	$0,-24(%rbp)
.Lj1079:
	nop
.Lj1075:
# [153] cur := utf8;
	movq	%rdx,-8(%rbp)
# [154] result := '';
	movq	%rbx,%rcx
	xorl	%edx,%edx
	call	fpc_unicodestr_assign
# [155] i := 1;
	movl	$1,%edi
# [156] while utf8decode(cur, nil, codepoint, size) do begin
	jmp	.Lj1081
	.balign 8,0x90
.Lj1080:
# [158] result := result + utf16encode(codepoint);
	movl	-12(%rbp),%esi
	cmpl	$65535,%esi
	jna	.Lj1084
	movl	%esi,%eax
	subq	$65536,%rax
	shrq	$10,%rax
	leaq	55296(%rax),%rdx
	andl	$65535,%edx
	leaq	-24(%rbp),%rcx
	call	fpc_uchar_to_unicodestr
	movl	%esi,%eax
	subl	$65536,%eax
	andl	$1023,%eax
	leal	56320(%eax),%edx
	andl	$65535,%edx
	leaq	-32(%rbp),%rcx
	call	fpc_uchar_to_unicodestr
	movq	-32(%rbp),%r8
	movq	-24(%rbp),%rdx
	leaq	-24(%rbp),%rcx
	call	fpc_unicodestr_concat
	jmp	.Lj1085
.Lj1084:
	movzwl	%si,%edx
	leaq	-24(%rbp),%rcx
	call	fpc_uchar_to_unicodestr
.Lj1085:
	movq	-24(%rbp),%r8
	movq	(%rbx),%rdx
	movq	%rbx,%rcx
	call	fpc_unicodestr_concat
# [159] inc(i, size);
	movzbl	-16(%rbp),%eax
	addl	%eax,%edi
.Lj1081:
	movq	-8(%rbp),%rax
	cmpb	$0,(%rax)
	jne	.Lj1088
	xorb	%cl,%cl
	jmp	.Lj1086
	.balign 4,0x90
.Lj1088:
	movq	-8(%rbp),%rax
	movb	(%rax),%al
	andb	$240,%al
	cmpb	$240,%al
	jne	.Lj1090
	movq	-8(%rbp),%rax
	movw	1(%rax),%ax
	andw	$63,%ax
	movswl	%ax,%eax
	shll	$12,%eax
	movq	-8(%rbp),%rdx
	movw	(%rdx),%dx
	andw	$7,%dx
	movswl	%dx,%edx
	shll	$18,%edx
	orl	%edx,%eax
	movq	-8(%rbp),%rdx
	movw	2(%rdx),%dx
	andw	$63,%dx
	movswl	%dx,%edx
	shll	$6,%edx
	orl	%edx,%eax
	movq	-8(%rbp),%rdx
	movw	3(%rdx),%dx
	andw	$63,%dx
	movswl	%dx,%edx
	orl	%edx,%eax
	movl	%eax,-12(%rbp)
	movb	$4,-16(%rbp)
	jmp	.Lj1091
.Lj1090:
	movq	-8(%rbp),%rax
	movb	(%rax),%al
	andb	$224,%al
	cmpb	$224,%al
	jne	.Lj1093
	movq	-8(%rbp),%rax
	movw	1(%rax),%ax
	andw	$63,%ax
	movswl	%ax,%eax
	shll	$6,%eax
	movq	-8(%rbp),%rdx
	movw	(%rdx),%dx
	andw	$15,%dx
	movswl	%dx,%edx
	shll	$12,%edx
	orl	%edx,%eax
	movq	-8(%rbp),%rdx
	movw	2(%rdx),%dx
	andw	$63,%dx
	movswl	%dx,%edx
	orl	%edx,%eax
	movl	%eax,-12(%rbp)
	movb	$3,-16(%rbp)
	jmp	.Lj1094
.Lj1093:
	movq	-8(%rbp),%rax
	movb	(%rax),%al
	andb	$192,%al
	cmpb	$192,%al
	jne	.Lj1096
	movq	-8(%rbp),%rax
	movw	(%rax),%ax
	andw	$31,%ax
	movswl	%ax,%eax
	shll	$6,%eax
	movq	-8(%rbp),%rdx
	movw	1(%rdx),%dx
	andw	$63,%dx
	movswl	%dx,%edx
	orl	%edx,%eax
	movl	%eax,-12(%rbp)
	movb	$2,-16(%rbp)
	jmp	.Lj1097
.Lj1096:
	movq	-8(%rbp),%rax
	movzbl	(%rax),%eax
	movl	%eax,-12(%rbp)
	movb	$1,-16(%rbp)
.Lj1097:
.Lj1094:
.Lj1091:
	movzbl	-16(%rbp),%eax
	addq	%rax,-8(%rbp)
	movb	$1,%cl
.Lj1086:
	testb	%cl,%cl
	jne	.Lj1080
.Lj1077:
	nop
.Lj1076:
	movq	%rbp,%rcx
	call	SYSTEM$_$UTF8TOUTF16$PANSICHAR$$UNICODESTRING_$$_fin$00000271
	movq	-56(%rbp),%rbx
	movq	-48(%rbp),%rdi
	movq	-40(%rbp),%rsi
	leaq	(%rbp),%rsp
	popq	%rbp
	ret
.seh_handler __FPC_specific_handler,@unwind
.seh_handlerdata
	.long	1
	.long	0
	.rva	.Lj1075
	.rva	.Lj1076
	.rva	SYSTEM$_$UTF8TOUTF16$PANSICHAR$$UNICODESTRING_$$_fin$00000271

.section .text.n_system_$$_utf8toutf16$pansichar$$unicodestring,"x"
.seh_endproc
.Lc603:

.section .text.n_system$_$utf16toutf8$unicodestring$$ansistring_$$_fin$00000272,"x"
	.balign 16,0x90
SYSTEM$_$UTF16TOUTF8$UNICODESTRING$$ANSISTRING_$$_fin$00000272:
.Lc607:
.seh_proc SYSTEM$_$UTF16TOUTF8$UNICODESTRING$$ANSISTRING_$$_fin$00000272
# [185] end;
	pushq	%rbp
.seh_pushreg %rbp
.Lc609:
.Lc610:
	movq	%rcx,%rbp
.Lc611:
	leaq	-32(%rsp),%rsp
.seh_stackalloc 32
.seh_endprologue
# [169] begin
	leaq	-48(%rbp),%rcx
	call	fpc_ansistr_decr_ref
	leaq	-40(%rbp),%rcx
	call	fpc_ansistr_decr_ref
	leaq	-8(%rbp),%rcx
	call	fpc_unicodestr_decr_ref
	nop
	leaq	32(%rsp),%rsp
	popq	%rbp
	ret
.seh_endproc
.Lc608:

.section .text.n_system_$$_utf16toutf8$unicodestring$$ansistring,"x"
	.balign 16,0x90
.globl	SYSTEM_$$_UTF16TOUTF8$UNICODESTRING$$ANSISTRING
SYSTEM_$$_UTF16TOUTF8$UNICODESTRING$$ANSISTRING:
.Lc612:
# Temps allocated between rbp-80 and rbp-24
.seh_proc SYSTEM_$$_UTF16TOUTF8$UNICODESTRING$$ANSISTRING
	pushq	%rbp
.seh_pushreg %rbp
.Lc614:
.Lc615:
	movq	%rsp,%rbp
.Lc616:
	leaq	-112(%rsp),%rsp
.seh_stackalloc 112
	movq	%rbx,-80(%rbp)
	movq	%rdi,-72(%rbp)
	movq	%rsi,-64(%rbp)
	movq	%r12,-56(%rbp)
.seh_savereg %rbx, 32
.seh_savereg %rdi, 40
.seh_savereg %rsi, 48
.seh_savereg %r12, 56
.seh_endprologue
# Var utf16 located at rbp-8, size=OS_64
# Var i located in register edi
# Var cur located at rbp-16, size=OS_64
# Var curend located in register rsi
# Var codepoint located at rbp-20, size=OS_32
# Var size located at rbp-24, size=OS_8
	movq	%rcx,%rbx
# Var $result located in register rbx
	movq	%rdx,-8(%rbp)
	movq	%rdx,%rcx
	call	fpc_unicodestr_incr_ref
	movq	$0,-48(%rbp)
	movq	$0,-40(%rbp)
.Lj1106:
	nop
.Lj1102:
	movq	-8(%rbp),%rax
	movq	%rax,-32(%rbp)
# [170] curend := @utf16[1]+(length(utf16)*2);
	movq	%rax,%rdx
	testq	%rax,%rax
	je	.Lj1107
	movq	-8(%rdx),%rdx
.Lj1107:
	shlq	$1,%rdx
	leaq	(%rax,%rdx),%rsi
# [171] result := '';
	movq	%rbx,%rcx
	xorl	%edx,%edx
	call	fpc_ansistr_assign
# [172] i := 1;
	movl	$1,%edi
# [173] while i <= length(utf16) do begin
	jmp	.Lj1109
	.balign 8,0x90
.Lj1108:
# [174] cur := @utf16[i];
	movq	-8(%rbp),%rdx
	movslq	%edi,%rax
	leaq	-2(%rdx,%rax,2),%rax
	movq	%rax,-16(%rbp)
# [175] if utf16decode(cur, curend, codepoint, size) then begin
	testq	%rsi,%rsi
	je	.Lj1113
	cmpq	-16(%rbp),%rsi
	jnbe	.Lj1113
	xorb	%cl,%cl
	jmp	.Lj1111
	.balign 4,0x90
.Lj1113:
	movq	-16(%rbp),%rax
	cmpw	$0,(%rax)
	jne	.Lj1116
	xorb	%cl,%cl
	jmp	.Lj1111
	.balign 4,0x90
.Lj1116:
	movq	-16(%rbp),%rax
	movzwl	(%rax),%eax
	movl	%eax,-20(%rbp)
	movb	$1,-24(%rbp)
	cmpl	$55296,-20(%rbp)
	jnae	.Lj1118
	cmpl	$56319,-20(%rbp)
	jnbe	.Lj1118
	testq	%rsi,%rsi
	je	.Lj1120
	movq	-16(%rbp),%rax
	addq	$2,%rax
	cmpq	%rax,%rsi
	jnae	.Lj1122
	movzwl	(%rax),%eax
	cmpl	$56320,%eax
	jnae	.Lj1122
	cmpl	$57343,%eax
	jnbe	.Lj1122
.Lj1120:
	movq	-16(%rbp),%rax
	movl	2(%rax),%eax
	andl	$65535,%eax
	subq	$56320,%rax
	movl	-20(%rbp),%edx
	subq	$55296,%rdx
	shlq	$10,%rdx
	addq	%rdx,%rax
	addq	$65536,%rax
	movl	%eax,-20(%rbp)
	movb	$2,-24(%rbp)
	.balign 4,0x90
.Lj1122:
	.balign 4,0x90
.Lj1118:
	movzbl	-24(%rbp),%eax
	shlq	$1,%rax
	addq	%rax,-16(%rbp)
	movb	$1,%cl
.Lj1111:
	testb	%cl,%cl
	je	.Lj1128
# [177] result := result + utf8encode(codepoint);
	movl	-20(%rbp),%r12d
	cmpl	$127,%r12d
	jnbe	.Lj1130
	xorl	%r8d,%r8d
	movzbl	%r12b,%edx
	leaq	-40(%rbp),%rcx
	call	fpc_char_to_ansistr
	jmp	.Lj1131
.Lj1130:
	cmpl	$2047,%r12d
	jnbe	.Lj1133
	movl	%r12d,%edx
	shrl	$6,%edx
	orl	$192,%edx
	andl	$255,%edx
	xorl	%r8d,%r8d
	leaq	-40(%rbp),%rcx
	call	fpc_char_to_ansistr
	movl	%r12d,%edx
	andl	$63,%edx
	orl	$128,%edx
	andl	$255,%edx
	xorl	%r8d,%r8d
	leaq	-48(%rbp),%rcx
	call	fpc_char_to_ansistr
	movq	-48(%rbp),%r8
	xorl	%r9d,%r9d
	movq	-40(%rbp),%rdx
	leaq	-40(%rbp),%rcx
	call	fpc_ansistr_concat
	jmp	.Lj1134
.Lj1133:
	cmpl	$65535,%r12d
	jnbe	.Lj1136
	movl	%r12d,%edx
	shrl	$12,%edx
	orl	$224,%edx
	andl	$255,%edx
	xorl	%r8d,%r8d
	leaq	-40(%rbp),%rcx
	call	fpc_char_to_ansistr
	movl	%r12d,%edx
	shrl	$6,%edx
	andl	$63,%edx
	orl	$128,%edx
	andl	$255,%edx
	xorl	%r8d,%r8d
	leaq	-48(%rbp),%rcx
	call	fpc_char_to_ansistr
	movq	-48(%rbp),%r8
	xorl	%r9d,%r9d
	movq	-40(%rbp),%rdx
	leaq	-40(%rbp),%rcx
	call	fpc_ansistr_concat
	movl	%r12d,%edx
	andl	$63,%edx
	orl	$128,%edx
	andl	$255,%edx
	xorl	%r8d,%r8d
	leaq	-48(%rbp),%rcx
	call	fpc_char_to_ansistr
	movq	-48(%rbp),%r8
	xorl	%r9d,%r9d
	movq	-40(%rbp),%rdx
	leaq	-40(%rbp),%rcx
	call	fpc_ansistr_concat
	jmp	.Lj1137
.Lj1136:
	movl	%r12d,%edx
	shrl	$18,%edx
	orl	$240,%edx
	andl	$255,%edx
	xorl	%r8d,%r8d
	leaq	-40(%rbp),%rcx
	call	fpc_char_to_ansistr
	movl	%r12d,%edx
	shrl	$12,%edx
	andl	$63,%edx
	orl	$128,%edx
	andl	$255,%edx
	xorl	%r8d,%r8d
	leaq	-48(%rbp),%rcx
	call	fpc_char_to_ansistr
	movq	-48(%rbp),%r8
	xorl	%r9d,%r9d
	movq	-40(%rbp),%rdx
	leaq	-40(%rbp),%rcx
	call	fpc_ansistr_concat
	movl	%r12d,%edx
	shrl	$6,%edx
	andl	$63,%edx
	orl	$128,%edx
	andl	$255,%edx
	xorl	%r8d,%r8d
	leaq	-48(%rbp),%rcx
	call	fpc_char_to_ansistr
	movq	-48(%rbp),%r8
	xorl	%r9d,%r9d
	movq	-40(%rbp),%rdx
	leaq	-40(%rbp),%rcx
	call	fpc_ansistr_concat
	movl	%r12d,%edx
	andl	$63,%edx
	orl	$128,%edx
	andl	$255,%edx
	xorl	%r8d,%r8d
	leaq	-48(%rbp),%rcx
	call	fpc_char_to_ansistr
	movq	-48(%rbp),%r8
	xorl	%r9d,%r9d
	movq	-40(%rbp),%rdx
	leaq	-40(%rbp),%rcx
	call	fpc_ansistr_concat
.Lj1137:
.Lj1134:
.Lj1131:
	movq	-40(%rbp),%r8
	movq	(%rbx),%rdx
	movq	%rbx,%rcx
	xorl	%r9d,%r9d
	call	fpc_ansistr_concat
# [178] inc(i, size);
	movzbl	-24(%rbp),%eax
	addl	%eax,%edi
	jmp	.Lj1138
.Lj1128:
# [180] result := result + '?';
	movq	(%rbx),%rdx
	movq	%rbx,%rcx
	xorl	%r9d,%r9d
	leaq	.Ld31(%rip),%r8
	call	fpc_ansistr_concat
# [181] inc(cur);
	addq	$2,-16(%rbp)
# [182] inc(i);
	addl	$1,%edi
.Lj1138:
.Lj1109:
	movslq	%edi,%rax
	movq	-8(%rbp),%rdx
	testq	%rdx,%rdx
	je	.Lj1139
	movq	-8(%rdx),%rdx
.Lj1139:
	cmpq	%rdx,%rax
	jle	.Lj1108
.Lj1104:
	nop
.Lj1103:
	movq	%rbp,%rcx
	call	SYSTEM$_$UTF16TOUTF8$UNICODESTRING$$ANSISTRING_$$_fin$00000272
	movq	-80(%rbp),%rbx
	movq	-72(%rbp),%rdi
	movq	-64(%rbp),%rsi
	movq	-56(%rbp),%r12
	leaq	(%rbp),%rsp
	popq	%rbp
	ret
.seh_handler __FPC_specific_handler,@unwind
.seh_handlerdata
	.long	1
	.long	0
	.rva	.Lj1102
	.rva	.Lj1103
	.rva	SYSTEM$_$UTF16TOUTF8$UNICODESTRING$$ANSISTRING_$$_fin$00000272

.section .text.n_system_$$_utf16toutf8$unicodestring$$ansistring,"x"
.seh_endproc
.Lc613:

.section .text.n_system$_$utf16toutf8$pwidechar$$ansistring_$$_fin$00000273,"x"
	.balign 16,0x90
SYSTEM$_$UTF16TOUTF8$PWIDECHAR$$ANSISTRING_$$_fin$00000273:
.Lc617:
.seh_proc SYSTEM$_$UTF16TOUTF8$PWIDECHAR$$ANSISTRING_$$_fin$00000273
# [202] end;
	pushq	%rbp
.seh_pushreg %rbp
.Lc619:
.Lc620:
	movq	%rcx,%rbp
.Lc621:
	leaq	-32(%rsp),%rsp
.seh_stackalloc 32
.seh_endprologue
# [193] begin
	leaq	-32(%rbp),%rcx
	call	fpc_ansistr_decr_ref
	leaq	-24(%rbp),%rcx
	call	fpc_ansistr_decr_ref
	nop
	leaq	32(%rsp),%rsp
	popq	%rbp
	ret
.seh_endproc
.Lc618:

.section .text.n_system_$$_utf16toutf8$pwidechar$$ansistring,"x"
	.balign 16,0x90
.globl	SYSTEM_$$_UTF16TOUTF8$PWIDECHAR$$ANSISTRING
SYSTEM_$$_UTF16TOUTF8$PWIDECHAR$$ANSISTRING:
.Lc622:
# Temps allocated between rbp-56 and rbp-16
.seh_proc SYSTEM_$$_UTF16TOUTF8$PWIDECHAR$$ANSISTRING
	pushq	%rbp
.seh_pushreg %rbp
.Lc624:
.Lc625:
	movq	%rsp,%rbp
.Lc626:
	leaq	-96(%rsp),%rsp
.seh_stackalloc 96
	movq	%rbx,-56(%rbp)
	movq	%rdi,-48(%rbp)
	movq	%rsi,-40(%rbp)
.seh_savereg %rbx, 40
.seh_savereg %rdi, 48
.seh_savereg %rsi, 56
.seh_endprologue
# Var i located in register edi
# Var cur located at rbp-8, size=OS_64
# Var codepoint located at rbp-12, size=OS_32
# Var size located at rbp-16, size=OS_8
	movq	%rcx,%rbx
# Var $result located in register rbx
# Var utf16 located in register rdx
	movq	$0,-32(%rbp)
	movq	$0,-24(%rbp)
.Lj1148:
	nop
.Lj1144:
# [194] cur := utf16;
	movq	%rdx,-8(%rbp)
# [195] result := '';
	movq	%rbx,%rcx
	xorl	%edx,%edx
	call	fpc_ansistr_assign
# [196] i := 1;
	movl	$1,%edi
# [197] while utf16decode(cur, nil, codepoint, size) do begin
	jmp	.Lj1150
	.balign 8,0x90
.Lj1149:
# [199] result := result + utf8encode(codepoint);
	movl	-12(%rbp),%esi
	cmpl	$127,%esi
	jnbe	.Lj1153
	xorl	%r8d,%r8d
	movzbl	%sil,%edx
	leaq	-24(%rbp),%rcx
	call	fpc_char_to_ansistr
	jmp	.Lj1154
.Lj1153:
	cmpl	$2047,%esi
	jnbe	.Lj1156
	movl	%esi,%edx
	shrl	$6,%edx
	orl	$192,%edx
	andl	$255,%edx
	xorl	%r8d,%r8d
	leaq	-24(%rbp),%rcx
	call	fpc_char_to_ansistr
	movl	%esi,%edx
	andl	$63,%edx
	orl	$128,%edx
	andl	$255,%edx
	xorl	%r8d,%r8d
	leaq	-32(%rbp),%rcx
	call	fpc_char_to_ansistr
	movq	-32(%rbp),%r8
	xorl	%r9d,%r9d
	movq	-24(%rbp),%rdx
	leaq	-24(%rbp),%rcx
	call	fpc_ansistr_concat
	jmp	.Lj1157
.Lj1156:
	cmpl	$65535,%esi
	jnbe	.Lj1159
	movl	%esi,%edx
	shrl	$12,%edx
	orl	$224,%edx
	andl	$255,%edx
	xorl	%r8d,%r8d
	leaq	-24(%rbp),%rcx
	call	fpc_char_to_ansistr
	movl	%esi,%edx
	shrl	$6,%edx
	andl	$63,%edx
	orl	$128,%edx
	andl	$255,%edx
	xorl	%r8d,%r8d
	leaq	-32(%rbp),%rcx
	call	fpc_char_to_ansistr
	movq	-32(%rbp),%r8
	xorl	%r9d,%r9d
	movq	-24(%rbp),%rdx
	leaq	-24(%rbp),%rcx
	call	fpc_ansistr_concat
	movl	%esi,%edx
	andl	$63,%edx
	orl	$128,%edx
	andl	$255,%edx
	xorl	%r8d,%r8d
	leaq	-32(%rbp),%rcx
	call	fpc_char_to_ansistr
	movq	-32(%rbp),%r8
	xorl	%r9d,%r9d
	movq	-24(%rbp),%rdx
	leaq	-24(%rbp),%rcx
	call	fpc_ansistr_concat
	jmp	.Lj1160
.Lj1159:
	movl	%esi,%edx
	shrl	$18,%edx
	orl	$240,%edx
	andl	$255,%edx
	xorl	%r8d,%r8d
	leaq	-24(%rbp),%rcx
	call	fpc_char_to_ansistr
	movl	%esi,%edx
	shrl	$12,%edx
	andl	$63,%edx
	orl	$128,%edx
	andl	$255,%edx
	xorl	%r8d,%r8d
	leaq	-32(%rbp),%rcx
	call	fpc_char_to_ansistr
	movq	-32(%rbp),%r8
	xorl	%r9d,%r9d
	movq	-24(%rbp),%rdx
	leaq	-24(%rbp),%rcx
	call	fpc_ansistr_concat
	movl	%esi,%edx
	shrl	$6,%edx
	andl	$63,%edx
	orl	$128,%edx
	andl	$255,%edx
	xorl	%r8d,%r8d
	leaq	-32(%rbp),%rcx
	call	fpc_char_to_ansistr
	movq	-32(%rbp),%r8
	xorl	%r9d,%r9d
	movq	-24(%rbp),%rdx
	leaq	-24(%rbp),%rcx
	call	fpc_ansistr_concat
	movl	%esi,%edx
	andl	$63,%edx
	orl	$128,%edx
	andl	$255,%edx
	xorl	%r8d,%r8d
	leaq	-32(%rbp),%rcx
	call	fpc_char_to_ansistr
	movq	-32(%rbp),%r8
	xorl	%r9d,%r9d
	movq	-24(%rbp),%rdx
	leaq	-24(%rbp),%rcx
	call	fpc_ansistr_concat
.Lj1160:
.Lj1157:
.Lj1154:
	movq	-24(%rbp),%r8
	movq	(%rbx),%rdx
	movq	%rbx,%rcx
	xorl	%r9d,%r9d
	call	fpc_ansistr_concat
# [200] inc(i, size);
	movzbl	-16(%rbp),%eax
	addl	%eax,%edi
.Lj1150:
	movq	-8(%rbp),%rax
	cmpw	$0,(%rax)
	jne	.Lj1163
	xorb	%cl,%cl
	jmp	.Lj1161
	.balign 4,0x90
.Lj1163:
	movq	-8(%rbp),%rax
	movzwl	(%rax),%eax
	movl	%eax,-12(%rbp)
	movb	$1,-16(%rbp)
	cmpl	$55296,-12(%rbp)
	jnae	.Lj1165
	cmpl	$56319,-12(%rbp)
	jnbe	.Lj1165
	movq	-8(%rbp),%rax
	movl	2(%rax),%eax
	andl	$65535,%eax
	subq	$56320,%rax
	movl	-12(%rbp),%edx
	subq	$55296,%rdx
	shlq	$10,%rdx
	addq	%rdx,%rax
	addq	$65536,%rax
	movl	%eax,-12(%rbp)
	movb	$2,-16(%rbp)
	.balign 4,0x90
.Lj1165:
	movzbl	-16(%rbp),%eax
	shlq	$1,%rax
	addq	%rax,-8(%rbp)
	movb	$1,%cl
.Lj1161:
	testb	%cl,%cl
	jne	.Lj1149
.Lj1146:
	nop
.Lj1145:
	movq	%rbp,%rcx
	call	SYSTEM$_$UTF16TOUTF8$PWIDECHAR$$ANSISTRING_$$_fin$00000273
	movq	-56(%rbp),%rbx
	movq	-48(%rbp),%rdi
	movq	-40(%rbp),%rsi
	leaq	(%rbp),%rsp
	popq	%rbp
	ret
.seh_handler __FPC_specific_handler,@unwind
.seh_handlerdata
	.long	1
	.long	0
	.rva	.Lj1144
	.rva	.Lj1145
	.rva	SYSTEM$_$UTF16TOUTF8$PWIDECHAR$$ANSISTRING_$$_fin$00000273

.section .text.n_system_$$_utf16toutf8$pwidechar$$ansistring,"x"
.seh_endproc
.Lc623:

.section .text.n_system_$$_is_codepoint_newline$longword$$boolean,"x"
	.balign 16,0x90
.globl	SYSTEM_$$_IS_CODEPOINT_NEWLINE$LONGWORD$$BOOLEAN
SYSTEM_$$_IS_CODEPOINT_NEWLINE$LONGWORD$$BOOLEAN:
.Lc627:
# Var $result located in register al
# Var u located in register ecx
# [205] begin
# [206] result := ((u <= 127) and ((u = 10) or (u = 13) or (u = $85))) or ((u = $2028) or (u = $2029));
	cmpl	$127,%ecx
	jnbe	.Lj1170
	cmpl	$10,%ecx
	je	.Lj1171
	cmpl	$13,%ecx
	je	.Lj1171
	cmpl	$133,%ecx
	je	.Lj1171
.Lj1170:
	cmpl	$8232,%ecx
	je	.Lj1171
	cmpl	$8233,%ecx
	jne	.Lj1176
# Var $result located in register al
.Lj1171:
	movb	$1,%al
	ret
.Lj1176:
	xorb	%al,%al
# [207] end;
	ret
.Lc628:

.section .text.n_system_$$_utf8len$pansichar$$int64,"x"
	.balign 16,0x90
.globl	SYSTEM_$$_UTF8LEN$PANSICHAR$$INT64
SYSTEM_$$_UTF8LEN$PANSICHAR$$INT64:
.Lc629:
.seh_proc SYSTEM_$$_UTF8LEN$PANSICHAR$$INT64
# [214] begin
	leaq	-24(%rsp),%rsp
.Lc631:
.seh_stackalloc 24
.seh_endprologue
# Var $result located in register rax
# Var cur located at rsp+0, size=OS_64
# Var codepoint located at rsp+8, size=OS_32
# Var size located at rsp+12, size=OS_8
# Var utf8 located in register rcx
# Var utf8 located in register rcx
# [215] cur := utf8;
	movq	%rcx,(%rsp)
# Var $result located in register rax
# [216] result := 0;
	xorl	%eax,%eax
# [217] while utf8decode(cur, nil, codepoint, size) do begin
	jmp	.Lj1184
	.balign 8,0x90
.Lj1183:
# [218] inc(result);
	addq	$1,%rax
.Lj1184:
	movq	(%rsp),%rdx
	cmpb	$0,(%rdx)
	jne	.Lj1188
	xorb	%r8b,%r8b
	jmp	.Lj1186
	.balign 4,0x90
.Lj1188:
	movq	(%rsp),%rdx
	movb	(%rdx),%dl
	andb	$240,%dl
	cmpb	$240,%dl
	jne	.Lj1190
	movq	(%rsp),%rdx
	movw	1(%rdx),%dx
	andw	$63,%dx
	movswl	%dx,%edx
	shll	$12,%edx
	movq	(%rsp),%rcx
	movw	(%rcx),%cx
	andw	$7,%cx
	movswl	%cx,%ecx
	shll	$18,%ecx
	orl	%ecx,%edx
	movq	(%rsp),%rcx
	movw	2(%rcx),%cx
	andw	$63,%cx
	movswl	%cx,%ecx
	shll	$6,%ecx
	orl	%ecx,%edx
	movq	(%rsp),%rcx
	movw	3(%rcx),%cx
	andw	$63,%cx
	movswl	%cx,%ecx
	orl	%ecx,%edx
	movl	%edx,8(%rsp)
	movb	$4,12(%rsp)
	jmp	.Lj1191
.Lj1190:
	movq	(%rsp),%rdx
	movb	(%rdx),%dl
	andb	$224,%dl
	cmpb	$224,%dl
	jne	.Lj1193
	movq	(%rsp),%rdx
	movw	1(%rdx),%dx
	andw	$63,%dx
	movswl	%dx,%edx
	shll	$6,%edx
	movq	(%rsp),%rcx
	movw	(%rcx),%cx
	andw	$15,%cx
	movswl	%cx,%ecx
	shll	$12,%ecx
	orl	%ecx,%edx
	movq	(%rsp),%rcx
	movw	2(%rcx),%cx
	andw	$63,%cx
	movswl	%cx,%ecx
	orl	%ecx,%edx
	movl	%edx,8(%rsp)
	movb	$3,12(%rsp)
	jmp	.Lj1194
.Lj1193:
	movq	(%rsp),%rdx
	movb	(%rdx),%dl
	andb	$192,%dl
	cmpb	$192,%dl
	jne	.Lj1196
	movq	(%rsp),%rdx
	movw	(%rdx),%dx
	andw	$31,%dx
	movswl	%dx,%edx
	shll	$6,%edx
	movq	(%rsp),%rcx
	movw	1(%rcx),%cx
	andw	$63,%cx
	movswl	%cx,%ecx
	orl	%ecx,%edx
	movl	%edx,8(%rsp)
	movb	$2,12(%rsp)
	jmp	.Lj1197
.Lj1196:
	movq	(%rsp),%rdx
	movzbl	(%rdx),%edx
	movl	%edx,8(%rsp)
	movb	$1,12(%rsp)
.Lj1197:
.Lj1194:
.Lj1191:
	movzbl	12(%rsp),%edx
	addq	%rdx,(%rsp)
	movb	$1,%r8b
.Lj1186:
	testb	%r8b,%r8b
	jne	.Lj1183
# [220] end;
	leaq	24(%rsp),%rsp
	ret
.seh_endproc
.Lc630:

.section .text.n_system_$$_newunicodestring$int64$$pointer,"x"
	.balign 16,0x90
SYSTEM_$$_NEWUNICODESTRING$INT64$$POINTER:
.Lc632:
.seh_proc SYSTEM_$$_NEWUNICODESTRING$INT64$$POINTER
# [ustrings.inc]
# [41] begin
	pushq	%rbx
.seh_pushreg %rbx
	leaq	-48(%rsp),%rsp
.Lc634:
.seh_stackalloc 48
.seh_endprologue
# Var $result located at rsp+32, size=OS_64
	movq	%rcx,%rbx
# Var len located in register rbx
# [42] GetMem(result, len*2+sizeof(tunicoderec)+2); {2 for #0}
	movq	%rbx,%rax
# [49] end;
	leaq	24(%rax,%rax,1),%rax
	leaq	2(%rax),%rdx
	leaq	32(%rsp),%rcx
	call	SYSTEM_$$_GETMEM$POINTER$QWORD$$POINTER
# [43] punicoderec(result)^.len := len;
	movq	32(%rsp),%rdx
	movq	%rbx,16(%rdx)
# Var len located in register rax
# [44] punicoderec(result)^.ref := 1;
	movq	32(%rsp),%rax
	movq	$1,8(%rax)
# [45] punicoderec(result)^.codepage := DefaultUnicodeCodePage;
	movq	32(%rsp),%rax
	movl	$1200,(%rax)
# [46] punicoderec(result)^.elementsize := 2;
	movq	32(%rsp),%rax
	movw	$2,4(%rax)
# [47] inc(result, ufirstoff);
	addq	$24,32(%rsp)
# [48] PUnicodeChar(result)^ := #0;
	movq	32(%rsp),%rax
	movw	$0,(%rax)
	movq	32(%rsp),%rax
	nop
	leaq	48(%rsp),%rsp
	popq	%rbx
	ret
.seh_endproc
.Lc633:

.section .text.n_fpc_unicodestr_assign,"x"
	.balign 16,0x90
.globl	fpc_unicodestr_assign
fpc_unicodestr_assign:
.globl	FPC_UNICODESTR_ASSIGN
FPC_UNICODESTR_ASSIGN:
.Lc635:
.seh_proc fpc_unicodestr_assign
# [52] begin
	pushq	%rbx
.seh_pushreg %rbx
	pushq	%rsi
.seh_pushreg %rsi
	leaq	-40(%rsp),%rsp
.Lc637:
.seh_stackalloc 40
.seh_endprologue
	movq	%rcx,%rbx
# Var s1 located in register rbx
	movq	%rdx,%rsi
# Var s2 located in register rsi
# [53] if s2 <> nil then
	testq	%rdx,%rdx
	je	.Lj1203
# [54] if punicoderec(s2-ufirstoff)^.ref > 0 then
	cmpq	$0,-16(%rsi)
	jng	.Lj1205
# [55] inc(punicoderec(s2-ufirstoff)^.ref);
	addq	$1,-16(%rsi)
	.balign 4,0x90
.Lj1205:
	.balign 4,0x90
.Lj1203:
# [56] fpc_unicodestr_decr_ref(s1);
	movq	%rbx,%rcx
	call	fpc_unicodestr_decr_ref
# Var s2 located in register rsi
# [57] s1 := s2;
	movq	%rsi,(%rbx)
# [58] end;
	nop
	leaq	40(%rsp),%rsp
	popq	%rsi
	popq	%rbx
	ret
.seh_endproc
.Lc636:

.section .text.n_system$_$fpc_unicodestr_setlength$unicodestring$int64_$$_fin$00000275,"x"
	.balign 16,0x90
SYSTEM$_$fpc_unicodestr_setlength$UNICODESTRING$INT64_$$_fin$00000275:
.Lc638:
.seh_proc SYSTEM$_$fpc_unicodestr_setlength$UNICODESTRING$INT64_$$_fin$00000275
# [77] end;
	pushq	%rbp
.seh_pushreg %rbp
.Lc640:
.Lc641:
	movq	%rcx,%rbp
.Lc642:
	leaq	-32(%rsp),%rsp
.seh_stackalloc 32
.seh_endprologue
	leaq	-8(%rbp),%rcx
	call	fpc_unicodestr_decr_ref
# [64] begin
	nop
	leaq	32(%rsp),%rsp
	popq	%rbp
	ret
.seh_endproc
.Lc639:

.section .text.n_fpc_unicodestr_setlength,"x"
	.balign 16,0x90
.globl	fpc_unicodestr_setlength
fpc_unicodestr_setlength:
.globl	FPC_UNICODESTR_SETLENGTH
FPC_UNICODESTR_SETLENGTH:
.Lc643:
# Temps allocated between rbp-24 and rbp-8
.seh_proc fpc_unicodestr_setlength
	pushq	%rbp
.seh_pushreg %rbp
.Lc645:
.Lc646:
	movq	%rsp,%rbp
.Lc647:
	leaq	-64(%rsp),%rsp
.seh_stackalloc 64
	movq	%rbx,-24(%rbp)
	movq	%rsi,-16(%rbp)
.seh_savereg %rbx, 40
.seh_savereg %rsi, 48
.seh_endprologue
# Var u located at rbp-8, size=OS_64
# Var n located in register rax
	movq	%rcx,%rbx
# Var s located in register rbx
	movq	%rdx,%rsi
# Var l located in register rsi
	movq	$0,-8(%rbp)
.Lj1214:
	nop
.Lj1210:
# [65] if l = 0 then begin
	testq	%rsi,%rsi
	jne	.Lj1216
# [66] fpc_unicodestr_decr_ref(pointer(s));
	movq	%rbx,%rcx
	call	fpc_unicodestr_decr_ref
# [67] exit;
	jmp	.Lj1212
	.balign 4,0x90
.Lj1216:
# [69] pointer(u) := newunicodestring(l);
	movq	%rsi,%rcx
	call	SYSTEM_$$_NEWUNICODESTRING$INT64$$POINTER
	movq	%rax,-8(%rbp)
# [70] if pointer(s) <> nil then begin
	cmpq	$0,(%rbx)
	je	.Lj1218
# [71] n := length(s)+1; // inc terminator
	movq	(%rbx),%rax
	testq	%rax,%rax
	je	.Lj1219
	movq	-8(%rax),%rax
.Lj1219:
	addq	$1,%rax
# [72] if n > l then n := l;
	cmpq	%rax,%rsi
	cmovlq	%rsi,%rax
# [73] move(pointer(s)^, pointer(u)^, n*2);
	movq	(%rbx),%rcx
	movq	%rax,%r8
	shlq	$1,%r8
	movq	-8(%rbp),%rdx
	call	SYSTEM_$$_MOVE$formal$formal$QWORD
# [74] fpc_unicodestr_decr_ref(pointer(s));
	movq	%rbx,%rcx
	call	fpc_unicodestr_decr_ref
	.balign 4,0x90
.Lj1218:
# [76] s := u;
	movq	%rbx,%rcx
	movq	-8(%rbp),%rdx
	call	fpc_unicodestr_assign
.Lj1212:
	nop
.Lj1211:
	movq	%rbp,%rcx
	call	SYSTEM$_$fpc_unicodestr_setlength$UNICODESTRING$INT64_$$_fin$00000275
	movq	-24(%rbp),%rbx
	movq	-16(%rbp),%rsi
	leaq	(%rbp),%rsp
	popq	%rbp
	ret
.seh_handler __FPC_specific_handler,@unwind
.seh_handlerdata
	.long	1
	.long	0
	.rva	.Lj1210
	.rva	.Lj1211
	.rva	SYSTEM$_$fpc_unicodestr_setlength$UNICODESTRING$INT64_$$_fin$00000275

.section .text.n_fpc_unicodestr_setlength,"x"
.seh_endproc
.Lc644:

.section .text.n_system$_$fpc_unicodestr_concat$unicodestring$unicodestring$unicodestring_$$_fin$00000276,"x"
	.balign 16,0x90
SYSTEM$_$fpc_unicodestr_concat$UNICODESTRING$UNICODESTRING$UNICODESTRING_$$_fin$00000276:
.Lc648:
.seh_proc SYSTEM$_$fpc_unicodestr_concat$UNICODESTRING$UNICODESTRING$UNICODESTRING_$$_fin$00000276
# [95] end;
	pushq	%rbp
.seh_pushreg %rbp
.Lc650:
.Lc651:
	movq	%rcx,%rbp
.Lc652:
	leaq	-32(%rsp),%rsp
.seh_stackalloc 32
.seh_endprologue
	leaq	-8(%rbp),%rcx
	call	fpc_unicodestr_decr_ref
# [82] begin
	nop
	leaq	32(%rsp),%rsp
	popq	%rbp
	ret
.seh_endproc
.Lc649:

.section .text.n_fpc_unicodestr_concat,"x"
	.balign 16,0x90
.globl	fpc_unicodestr_concat
fpc_unicodestr_concat:
.Lc653:
# Temps allocated between rbp-32 and rbp-8
.seh_proc fpc_unicodestr_concat
	pushq	%rbp
.seh_pushreg %rbp
.Lc655:
.Lc656:
	movq	%rsp,%rbp
.Lc657:
	leaq	-64(%rsp),%rsp
.seh_stackalloc 64
	movq	%rbx,-32(%rbp)
	movq	%rdi,-24(%rbp)
	movq	%rsi,-16(%rbp)
.seh_savereg %rbx, 32
.seh_savereg %rdi, 40
.seh_savereg %rsi, 48
.seh_endprologue
# Var u located at rbp-8, size=OS_64
	movq	%rcx,%rbx
# Var dests located in register rbx
	movq	%rdx,%rsi
# Var s1 located in register rsi
	movq	%r8,%rdi
# Var s2 located in register rdi
	movq	$0,-8(%rbp)
.Lj1230:
	nop
.Lj1226:
# [83] if s1 = '' then begin
	testq	%rsi,%rsi
	jne	.Lj1232
# [84] dests := s2;
	movq	%rbx,%rcx
	movq	%rdi,%rdx
	call	fpc_unicodestr_assign
# [85] exit;
	jmp	.Lj1228
	.balign 4,0x90
.Lj1232:
# [87] if s2 = '' then begin
	testq	%rdi,%rdi
	jne	.Lj1234
# [88] dests := s1;
	movq	%rbx,%rcx
	movq	%rsi,%rdx
	call	fpc_unicodestr_assign
# [89] exit;
	jmp	.Lj1228
	.balign 4,0x90
.Lj1234:
# [91] setlength(u, length(s1)+length(s2));
	movq	%rsi,%rax
	testq	%rsi,%rsi
	je	.Lj1235
	movq	-8(%rax),%rax
.Lj1235:
	movq	%rdi,%rdx
	testq	%rdi,%rdi
	je	.Lj1236
	movq	-8(%rdx),%rdx
.Lj1236:
	addq	%rax,%rdx
	leaq	-8(%rbp),%rcx
	call	fpc_unicodestr_setlength
# [92] move(pointer(s1)^, pointer(u)^, length(s1)*2);
	movq	%rsi,%r8
	testq	%rsi,%rsi
	je	.Lj1237
	movq	-8(%r8),%r8
.Lj1237:
	shlq	$1,%r8
	movq	-8(%rbp),%rdx
	movq	%rsi,%rcx
	call	SYSTEM_$$_MOVE$formal$formal$QWORD
# [93] move(pointer(s2)^, (pointer(u)+(length(s1)*2))^, length(s2)*2);
	movq	%rsi,%rdx
	testq	%rsi,%rsi
	je	.Lj1238
	movq	-8(%rdx),%rdx
.Lj1238:
	shlq	$1,%rdx
	addq	-8(%rbp),%rdx
	movq	%rdi,%r8
	testq	%rdi,%rdi
	je	.Lj1239
	movq	-8(%r8),%r8
.Lj1239:
	shlq	$1,%r8
	movq	%rdi,%rcx
	call	SYSTEM_$$_MOVE$formal$formal$QWORD
# [94] dests := u;
	movq	%rbx,%rcx
	movq	-8(%rbp),%rdx
	call	fpc_unicodestr_assign
.Lj1228:
	nop
.Lj1227:
	movq	%rbp,%rcx
	call	SYSTEM$_$fpc_unicodestr_concat$UNICODESTRING$UNICODESTRING$UNICODESTRING_$$_fin$00000276
	movq	-32(%rbp),%rbx
	movq	-24(%rbp),%rdi
	movq	-16(%rbp),%rsi
	leaq	(%rbp),%rsp
	popq	%rbp
	ret
.seh_handler __FPC_specific_handler,@unwind
.seh_handlerdata
	.long	1
	.long	0
	.rva	.Lj1226
	.rva	.Lj1227
	.rva	SYSTEM$_$fpc_unicodestr_concat$UNICODESTRING$UNICODESTRING$UNICODESTRING_$$_fin$00000276

.section .text.n_fpc_unicodestr_concat,"x"
.seh_endproc
.Lc654:

.section .text.n_fpc_unicodestr_concat_multi,"x"
	.balign 16,0x90
.globl	fpc_unicodestr_concat_multi
fpc_unicodestr_concat_multi:
.Lc658:
# Temps allocated between rbp-40 and rbp+0
.seh_proc fpc_unicodestr_concat_multi
# [101] begin
	pushq	%rbp
.seh_pushreg %rbp
.Lc660:
.Lc661:
	movq	%rsp,%rbp
.Lc662:
	leaq	-80(%rsp),%rsp
.seh_stackalloc 80
	movq	%rbx,-40(%rbp)
	movq	%rdi,-32(%rbp)
	movq	%rsi,-24(%rbp)
	movq	%r12,-16(%rbp)
	movq	%r13,-8(%rbp)
.seh_savereg %rbx, 40
.seh_savereg %rdi, 48
.seh_savereg %rsi, 56
.seh_savereg %r12, 64
.seh_savereg %r13, 72
.seh_endprologue
# Var l located in register rax
# Var p located in register rax
# Var i located in register r12d
	movq	%rcx,%rbx
# Var dests located in register rbx
	movq	%rdx,%rsi
# Var sarr located in register rsi
	movq	%r8,%rdi
# Var $highSARR located in register rdi
# Var l located in register rdx
# [102] l := 0;
	xorl	%edx,%edx
# [103] for i := 0 to high(sarr) do begin
	movl	%edi,%eax
	testl	%eax,%eax
	jnge	.Lj1243
	movl	$-1,%r12d
	.balign 8,0x90
.Lj1244:
	addl	$1,%r12d
# [104] if (pointer(sarr[i]) <> nil) and (sarr[i] <> '') then l := l + length(sarr[i]);
	movslq	%r12d,%rcx
	movq	(%rsi,%rcx,8),%rcx
	testq	%rcx,%rcx
	je	.Lj1248
	testq	%rcx,%rcx
	je	.Lj1248
	movslq	%r12d,%rcx
	movq	(%rsi,%rcx,8),%rcx
	testq	%rcx,%rcx
	je	.Lj1250
	movq	-8(%rcx),%rcx
.Lj1250:
	addq	%rcx,%rdx
	.balign 4,0x90
.Lj1248:
	cmpl	%r12d,%eax
	jnle	.Lj1244
	.balign 4,0x90
.Lj1243:
# [106] setlength(dests, l);
	movq	%rbx,%rcx
# Var l located in register rdx
	call	fpc_unicodestr_setlength
# Var p located in register r13
# [107] p := 1;
	movl	$1,%r13d
# [108] for i := 0 to high(sarr) do begin
	testl	%edi,%edi
	jnge	.Lj1252
	movl	$-1,%r12d
	.balign 8,0x90
.Lj1253:
	addl	$1,%r12d
# [109] if (pointer(sarr[i]) <> nil) and (sarr[i] <> '') then begin
	movslq	%r12d,%rax
	movq	(%rsi,%rax,8),%rax
	testq	%rax,%rax
	je	.Lj1257
	testq	%rax,%rax
	je	.Lj1257
# [110] move(pointer(sarr[i])^, pointer(@dests[p])^, length(sarr[i]));
	movslq	%r12d,%rax
	movq	(%rsi,%rax,8),%r8
	testq	%r8,%r8
	je	.Lj1259
	movq	-8(%r8),%r8
.Lj1259:
	movq	(%rbx),%rax
	leaq	-2(%rax,%r13,2),%rdx
	movslq	%r12d,%rax
	movq	(%rsi,%rax,8),%rcx
	call	SYSTEM_$$_MOVE$formal$formal$QWORD
# [111] inc(p, length(sarr[i]));
	movslq	%r12d,%rax
	movq	(%rsi,%rax,8),%rax
	testq	%rax,%rax
	je	.Lj1260
	movq	-8(%rax),%rax
.Lj1260:
	addq	%rax,%r13
	.balign 4,0x90
.Lj1257:
	cmpl	%r12d,%edi
	jnle	.Lj1253
	.balign 4,0x90
.Lj1252:
# [114] end;
	movq	-40(%rbp),%rbx
	movq	-32(%rbp),%rdi
	movq	-24(%rbp),%rsi
	movq	-16(%rbp),%r12
	movq	-8(%rbp),%r13
	leaq	(%rbp),%rsp
	popq	%rbp
	ret
.seh_endproc
.Lc659:

.section .text.n_fpc_unicodestr_incr_ref,"x"
	.balign 16,0x90
.globl	fpc_unicodestr_incr_ref
fpc_unicodestr_incr_ref:
.globl	FPC_UNICODESTR_INCR_REF
FPC_UNICODESTR_INCR_REF:
.Lc663:
# [117] begin
	movq	%rcx,%rax
# Var s located in register rax
# [118] if (s = nil) or (punicoderec(s-ufirstoff)^.ref < 0) then exit;
	testq	%rcx,%rcx
	je	.Lj1261
	cmpq	$0,-16(%rax)
	jl	.Lj1261
	.balign 4,0x90
# Var s located in register rax
# [119] inc(punicoderec(s-ufirstoff)^.ref);
	addq	$1,-16(%rax)
.Lj1261:
# [120] end;
	ret
.Lc664:

.section .text.n_fpc_unicodestr_decr_ref,"x"
	.balign 16,0x90
.globl	fpc_unicodestr_decr_ref
fpc_unicodestr_decr_ref:
.globl	FPC_UNICODESTR_DECR_REF
FPC_UNICODESTR_DECR_REF:
.Lc665:
.seh_proc fpc_unicodestr_decr_ref
# [123] begin
	pushq	%rbx
.seh_pushreg %rbx
	leaq	-32(%rsp),%rsp
.Lc667:
.seh_stackalloc 32
.seh_endprologue
	movq	%rcx,%rbx
# Var s located in register rbx
	movq	(%rbx),%rax
# [124] if (s = nil) or (punicoderec(s-ufirstoff)^.ref < 0) then exit;
	testq	%rax,%rax
	je	.Lj1266
	cmpq	$0,-16(%rax)
	jl	.Lj1266
	.balign 4,0x90
# [125] dec(punicoderec(s-ufirstoff)^.ref);
	movq	(%rbx),%rax
	subq	$1,-16(%rax)
# [126] if punicoderec(s-ufirstoff)^.ref <= 0 then FreeMem(s-ufirstoff);
	movq	(%rbx),%rax
	cmpq	$0,-16(%rax)
	jnle	.Lj1272
	movq	(%rbx),%rax
	leaq	-24(%rax),%rcx
	call	SYSTEM_$$_FREEMEM$POINTER$$QWORD
	.balign 4,0x90
.Lj1272:
# [127] s := nil;
	movq	$0,(%rbx)
.Lj1266:
# [128] end;
	nop
	leaq	32(%rsp),%rsp
	popq	%rbx
	ret
.seh_endproc
.Lc666:

.section .text.n_system$_$fpc_unicodestr_unique$pointer$$pointer_$$_fin$00000277,"x"
	.balign 16,0x90
SYSTEM$_$fpc_unicodestr_unique$POINTER$$POINTER_$$_fin$00000277:
.Lc668:
.seh_proc SYSTEM$_$fpc_unicodestr_unique$POINTER$$POINTER_$$_fin$00000277
# [137] end;
	pushq	%rbp
.seh_pushreg %rbp
.Lc670:
.Lc671:
	movq	%rcx,%rbp
.Lc672:
	leaq	-32(%rsp),%rsp
.seh_stackalloc 32
.seh_endprologue
	leaq	-8(%rbp),%rcx
	call	fpc_unicodestr_decr_ref
# [133] begin
	nop
	leaq	32(%rsp),%rsp
	popq	%rbp
	ret
.seh_endproc
.Lc669:

.section .text.n_fpc_unicodestr_unique,"x"
	.balign 16,0x90
.globl	fpc_unicodestr_unique
fpc_unicodestr_unique:
.globl	FPC_UNICODESTR_UNIQUE
FPC_UNICODESTR_UNIQUE:
.Lc673:
# Temps allocated between rbp-16 and rbp-8
.seh_proc fpc_unicodestr_unique
	pushq	%rbp
.seh_pushreg %rbp
.Lc675:
.Lc676:
	movq	%rsp,%rbp
.Lc677:
	leaq	-48(%rsp),%rsp
.seh_stackalloc 48
	movq	%rbx,-16(%rbp)
.seh_savereg %rbx, 32
.seh_endprologue
# Var $result located in register rax
# Var u located at rbp-8, size=OS_64
	movq	%rcx,%rbx
# Var s located in register rbx
	movq	$0,-8(%rbp)
.Lj1281:
	nop
.Lj1277:
# [134] pointer(u) := newunicodestring(punicoderec(s-ufirstoff)^.len);
	movq	(%rbx),%rax
	movq	-8(%rax),%rcx
	call	SYSTEM_$$_NEWUNICODESTRING$INT64$$POINTER
	movq	%rax,-8(%rbp)
# [135] move(s^, pointer(u)^, punicoderec(s-ufirstoff)^.len);
	movq	(%rbx),%rax
	movq	-8(%rax),%r8
	movq	(%rbx),%rcx
	movq	-8(%rbp),%rdx
	call	SYSTEM_$$_MOVE$formal$formal$QWORD
# [136] s := pointer(u);
	movq	-8(%rbp),%rax
	movq	%rax,(%rbx)
.Lj1279:
	nop
.Lj1278:
	movq	%rbp,%rcx
	call	SYSTEM$_$fpc_unicodestr_unique$POINTER$$POINTER_$$_fin$00000277
	movq	-16(%rbp),%rbx
	leaq	(%rbp),%rsp
	popq	%rbp
	ret
.seh_handler __FPC_specific_handler,@unwind
.seh_handlerdata
	.long	1
	.long	0
	.rva	.Lj1277
	.rva	.Lj1278
	.rva	SYSTEM$_$fpc_unicodestr_unique$POINTER$$POINTER_$$_fin$00000277

.section .text.n_fpc_unicodestr_unique,"x"
.seh_endproc
.Lc674:

.section .text.n_fpc_unicodestr_copy,"x"
	.balign 16,0x90
.globl	fpc_unicodestr_copy
fpc_unicodestr_copy:
.Lc678:
.seh_proc fpc_unicodestr_copy
# [140] begin
	pushq	%rbx
.seh_pushreg %rbx
	pushq	%rdi
.seh_pushreg %rdi
	pushq	%rsi
.seh_pushreg %rsi
	pushq	%r12
.seh_pushreg %r12
	leaq	-40(%rsp),%rsp
.Lc680:
.seh_stackalloc 40
.seh_endprologue
	movq	%rcx,%rbx
# Var $result located in register rbx
	movq	%rdx,%rsi
# Var s located in register rsi
	movq	%r8,%rdi
# Var index located in register rdi
	movq	%r9,%r12
# Var size located in register r12
# [141] dec(index);
	subq	$1,%rdi
# [142] if index < 0 then index := 0;
	testq	%rdi,%rdi
	jnl	.Lj1285
	xorl	%edi,%edi
	.balign 4,0x90
.Lj1285:
# [143] if (size > length(s)) or (size+index > length(s)) then size := length(s)-index;
	movq	%rsi,%rax
	testq	%rsi,%rsi
	je	.Lj1286
	movq	-8(%rax),%rax
.Lj1286:
	cmpq	%r12,%rax
	jl	.Lj1287
	leaq	(%r12,%rdi),%rdx
	cmpq	%rax,%rdx
	jng	.Lj1289
.Lj1287:
	movq	%rsi,%rax
	testq	%rsi,%rsi
	je	.Lj1290
	movq	-8(%rax),%rax
.Lj1290:
	subq	%rdi,%rax
	movq	%rax,%r12
	.balign 4,0x90
.Lj1289:
# [144] setlength(result, size);
	movq	%rbx,%rcx
# Var size located in register r12
	movq	%r12,%rdx
	call	fpc_unicodestr_setlength
# [145] move((pointer(s)+(index*2))^, pointer(result)^, size*2);
	shlq	$1,%rdi
	leaq	(%rdi,%rsi),%rcx
	movq	(%rbx),%rdx
	movq	%r12,%r8
	shlq	$1,%r8
	call	SYSTEM_$$_MOVE$formal$formal$QWORD
# [146] end;
	nop
	leaq	40(%rsp),%rsp
	popq	%r12
	popq	%rsi
	popq	%rdi
	popq	%rbx
	ret
.seh_endproc
.Lc679:

.section .text.n_fpc_uchar_to_unicodestr,"x"
	.balign 16,0x90
.globl	fpc_uchar_to_unicodestr
fpc_uchar_to_unicodestr:
.Lc681:
.seh_proc fpc_uchar_to_unicodestr
# [149] begin
	pushq	%rbx
.seh_pushreg %rbx
	pushq	%rsi
.seh_pushreg %rsi
	leaq	-40(%rsp),%rsp
.Lc683:
.seh_stackalloc 40
.seh_endprologue
	movq	%rcx,%rbx
# Var $result located in register rbx
	movw	%dx,%si
# Var c located in register si
# [150] setlength(result, 1);
	movq	%rbx,%rcx
	movl	$1,%edx
	call	fpc_unicodestr_setlength
# [151] pwidechar(@result[1])^ := c;
	movq	(%rbx),%rax
# Var c located in register si
	movw	%si,(%rax)
# [152] end;
	nop
	leaq	40(%rsp),%rsp
	popq	%rsi
	popq	%rbx
	ret
.seh_endproc
.Lc682:

.section .text.n_fpc_unicodestr_to_ansistr,"x"
	.balign 16,0x90
.globl	fpc_unicodestr_to_ansistr
fpc_unicodestr_to_ansistr:
.Lc684:
.seh_proc fpc_unicodestr_to_ansistr
# [155] begin
	leaq	-40(%rsp),%rsp
.Lc686:
.seh_stackalloc 40
.seh_endprologue
# Var $result located in register rax
# Var s2 located in register rdx
# Var cp located in register r8d
# Var s2 located in register rdx
# [156] result := utf16toutf8(s2);
	call	SYSTEM_$$_UTF16TOUTF8$UNICODESTRING$$ANSISTRING
# [157] end;
	nop
	leaq	40(%rsp),%rsp
	ret
.seh_endproc
.Lc685:

.section .text.n_fpc_pwidechar_to_unicodestr,"x"
	.balign 16,0x90
.globl	fpc_pwidechar_to_unicodestr
fpc_pwidechar_to_unicodestr:
.Lc687:
.seh_proc fpc_pwidechar_to_unicodestr
# [162] begin
	pushq	%rbx
.seh_pushreg %rbx
	pushq	%rsi
.seh_pushreg %rsi
	leaq	-40(%rsp),%rsp
.Lc689:
.seh_stackalloc 40
.seh_endprologue
# Var p located at rsp+32, size=OS_64
# Var s located in register rax
	movq	%rcx,%rbx
# Var $result located in register rbx
	movq	%rdx,32(%rsp)
# [163] if p = nil then exit('');
	testq	%rdx,%rdx
	jne	.Lj1298
	movq	%rbx,%rcx
	xorl	%edx,%edx
	call	fpc_unicodestr_assign
	jmp	.Lj1295
	.balign 4,0x90
.Lj1298:
# [164] s := IndexWord(p, -1, 0);
	leaq	32(%rsp),%rcx
	xorl	%r8d,%r8d
	movq	$-1,%rdx
	call	SYSTEM_$$_INDEXWORD$formal$INT64$WORD$$INT64
	movq	%rax,%rsi
# Var s located in register rsi
# [165] setlength(result, s);
	movq	%rbx,%rcx
# Var s located in register rsi
	movq	%rsi,%rdx
	call	fpc_unicodestr_setlength
# [166] move(p^, pointer(result)^, s*2);
	movq	(%rbx),%rdx
	movq	%rsi,%r8
	shlq	$1,%r8
	movq	32(%rsp),%rcx
	call	SYSTEM_$$_MOVE$formal$formal$QWORD
.Lj1295:
# [167] end;
	nop
	leaq	40(%rsp),%rsp
	popq	%rsi
	popq	%rbx
	ret
.seh_endproc
.Lc688:

.section .text.n_fpc_widestr_to_unicodestr,"x"
	.balign 16,0x90
.globl	fpc_widestr_to_unicodestr
fpc_widestr_to_unicodestr:
.Lc690:
.seh_proc fpc_widestr_to_unicodestr
# [170] begin
	pushq	%rbx
.seh_pushreg %rbx
	pushq	%rsi
.seh_pushreg %rsi
	leaq	-40(%rsp),%rsp
.Lc692:
.seh_stackalloc 40
.seh_endprologue
	movq	%rcx,%rbx
# Var $result located in register rbx
	movq	%rdx,%rsi
# Var s2 located in register rsi
# [171] setlength(result, length(s2));
	testq	%rdx,%rdx
	je	.Lj1301
	movl	-4(%rdx),%edx
	shrq	$1,%rdx
.Lj1301:
	movq	%rbx,%rcx
	call	fpc_unicodestr_setlength
# [172] move(pointer(s2)^, pointer(result)^, length(s2)*2);
	movq	%rsi,%r8
	testq	%rsi,%rsi
	je	.Lj1302
	movl	-4(%r8),%r8d
	shrq	$1,%r8
.Lj1302:
	shlq	$1,%r8
	movq	(%rbx),%rdx
	movq	%rsi,%rcx
# Var s2 located in register rcx
	call	SYSTEM_$$_MOVE$formal$formal$QWORD
# [173] end;
	nop
	leaq	40(%rsp),%rsp
	popq	%rsi
	popq	%rbx
	ret
.seh_endproc
.Lc691:

.section .text.n_system_$$_inclocked$longint,"x"
	.balign 16,0x90
.globl	SYSTEM_$$_INCLOCKED$LONGINT
SYSTEM_$$_INCLOCKED$LONGINT:
.Lc723:
.seh_proc SYSTEM_$$_INCLOCKED$LONGINT
# [misc.inc]
# [105] begin
	pushq	%rbx
.seh_pushreg %rbx
	leaq	-32(%rsp),%rsp
.Lc725:
.seh_stackalloc 32
.seh_endprologue
	movq	%rcx,%rbx
# Var target located in register rbx
# [106] if IsMultithread then AtomicIncrement(target) else inc(target);
	cmpb	$0,TC_$SYSTEM_$$_ISMULTITHREAD(%rip)
	je	.Lj1318
	movq	%rbx,%rcx
	call	SYSTEM_$$_ATOMICINCREMENT$LONGINT$$LONGINT
	jmp	.Lj1319
.Lj1318:
	addl	$1,(%rbx)
.Lj1319:
# [107] end;
	nop
	leaq	32(%rsp),%rsp
	popq	%rbx
	ret
.seh_endproc
.Lc724:

.section .text.n_system_$$_inclocked$int64,"x"
	.balign 16,0x90
.globl	SYSTEM_$$_INCLOCKED$INT64
SYSTEM_$$_INCLOCKED$INT64:
.Lc726:
.seh_proc SYSTEM_$$_INCLOCKED$INT64
# [110] begin
	pushq	%rbx
.seh_pushreg %rbx
	leaq	-32(%rsp),%rsp
.Lc728:
.seh_stackalloc 32
.seh_endprologue
	movq	%rcx,%rbx
# Var target located in register rbx
# [111] if IsMultithread then AtomicIncrement(target) else inc(target);
	cmpb	$0,TC_$SYSTEM_$$_ISMULTITHREAD(%rip)
	je	.Lj1323
	movq	%rbx,%rcx
	call	SYSTEM_$$_ATOMICINCREMENT$INT64$$INT64
	jmp	.Lj1324
.Lj1323:
	addq	$1,(%rbx)
.Lj1324:
# [112] end;
	nop
	leaq	32(%rsp),%rsp
	popq	%rbx
	ret
.seh_endproc
.Lc727:

.section .text.n_system_$$_declocked$longint$$boolean,"x"
	.balign 16,0x90
.globl	SYSTEM_$$_DECLOCKED$LONGINT$$BOOLEAN
SYSTEM_$$_DECLOCKED$LONGINT$$BOOLEAN:
.Lc729:
.seh_proc SYSTEM_$$_DECLOCKED$LONGINT$$BOOLEAN
# [115] begin
	pushq	%rbx
.seh_pushreg %rbx
	leaq	-32(%rsp),%rsp
.Lc731:
.seh_stackalloc 32
.seh_endprologue
# Var $result located in register al
	movq	%rcx,%rbx
# Var target located in register rbx
# [116] if IsMultithread then
	cmpb	$0,TC_$SYSTEM_$$_ISMULTITHREAD(%rip)
	je	.Lj1328
# [117] result := AtomicDecrement(target) = 0
	movq	%rbx,%rcx
	call	SYSTEM_$$_ATOMICDECREMENT$LONGINT$$LONGINT
	testl	%eax,%eax
	seteb	%al
	jmp	.Lj1329
.Lj1328:
# [119] dec(target);
	subl	$1,(%rbx)
# [120] result := target = 0;
	cmpl	$0,(%rbx)
	seteb	%al
.Lj1329:
# [122] end;
	nop
	leaq	32(%rsp),%rsp
	popq	%rbx
	ret
.seh_endproc
.Lc730:

.section .text.n_system_$$_declocked$int64$$boolean,"x"
	.balign 16,0x90
.globl	SYSTEM_$$_DECLOCKED$INT64$$BOOLEAN
SYSTEM_$$_DECLOCKED$INT64$$BOOLEAN:
.Lc732:
.seh_proc SYSTEM_$$_DECLOCKED$INT64$$BOOLEAN
# [125] begin
	pushq	%rbx
.seh_pushreg %rbx
	leaq	-32(%rsp),%rsp
.Lc734:
.seh_stackalloc 32
.seh_endprologue
# Var $result located in register al
	movq	%rcx,%rbx
# Var target located in register rbx
# [126] if IsMultithread then
	cmpb	$0,TC_$SYSTEM_$$_ISMULTITHREAD(%rip)
	je	.Lj1333
# [127] result := AtomicDecrement(target) = 0
	movq	%rbx,%rcx
	call	SYSTEM_$$_ATOMICDECREMENT$INT64$$INT64
	testq	%rax,%rax
	seteb	%al
	jmp	.Lj1334
.Lj1333:
# [129] dec(target);
	subq	$1,(%rbx)
# [130] result := target = 0;
	cmpq	$0,(%rbx)
	seteb	%al
.Lj1334:
# [132] end;
	nop
	leaq	32(%rsp),%rsp
	popq	%rbx
	ret
.seh_endproc
.Lc733:

.section .text.n_system_$$_makelangid$word$word$$word,"x"
	.balign 16,0x90
.globl	SYSTEM_$$_MAKELANGID$WORD$WORD$$WORD
SYSTEM_$$_MAKELANGID$WORD$WORD$$WORD:
.Lc735:
# Var $result located in register ax
# [175] begin
	movl	%ecx,%eax
# Var primary located in register ax
# Var sub located in register dx
# [176] result := (primary and $3FF) or (sub shl 10);
	andl	$1023,%eax
	andl	$65535,%edx
	shll	$10,%edx
	orl	%edx,%eax
# Var $result located in register ax
# [177] end;
	andl	$65535,%eax
	ret
.Lc736:

.section .text.n_system_$$_pos$ansistring$ansistring$int64$$int64,"x"
	.balign 16,0x90
.globl	SYSTEM_$$_POS$ANSISTRING$ANSISTRING$INT64$$INT64
SYSTEM_$$_POS$ANSISTRING$ANSISTRING$INT64$$INT64:
.Lc737:
.seh_proc SYSTEM_$$_POS$ANSISTRING$ANSISTRING$INT64$$INT64
# [182] begin
	pushq	%rbx
.seh_pushreg %rbx
	pushq	%rdi
.seh_pushreg %rdi
	pushq	%rsi
.seh_pushreg %rsi
	pushq	%r12
.seh_pushreg %r12
	pushq	%r13
.seh_pushreg %r13
	leaq	-32(%rsp),%rsp
.Lc739:
.seh_stackalloc 32
.seh_endprologue
# Var $result located in register rax
# Var i located in register r13
	movq	%rcx,%rbx
# Var needle located in register rbx
	movq	%rdx,%rsi
# Var haystack located in register rsi
# Var offset located in register r8
# Var $result located in register rdi
# [183] result := -1;
	movq	$-1,%rdi
# [184] for i := offset to length(haystack)-length(needle)+1 do
	movq	%rsi,%rax
	testq	%rsi,%rsi
	je	.Lj1339
	movq	-8(%rax),%rax
.Lj1339:
	movq	%rbx,%rdx
	testq	%rbx,%rbx
	je	.Lj1340
	movq	-8(%rdx),%rdx
.Lj1340:
	subq	%rdx,%rax
	leaq	1(%rax),%r12
	cmpq	%r8,%r12
	jnge	.Lj1342
	leaq	-1(%r8),%r13
	.balign 8,0x90
.Lj1343:
	addq	$1,%r13
# [185] if CompareByte(needle[1], haystack[i], length(needle)) = 0 then
	movq	%rbx,%r8
	testq	%rbx,%rbx
	je	.Lj1346
	movq	-8(%r8),%r8
.Lj1346:
	leaq	-1(%rsi,%r13,1),%rdx
	movq	%rbx,%rcx
	call	SYSTEM_$$_COMPAREBYTE$formal$formal$QWORD$$INT64
	testq	%rax,%rax
	jne	.Lj1348
# [186] exit(i);
	movq	%r13,%rdi
	jmp	.Lj1337
	.balign 4,0x90
.Lj1348:
	cmpq	%r13,%r12
	jnle	.Lj1343
	.balign 4,0x90
.Lj1342:
.Lj1337:
# [187] end;
	movq	%rdi,%rax
	nop
	leaq	32(%rsp),%rsp
	popq	%r13
	popq	%r12
	popq	%rsi
	popq	%rdi
	popq	%rbx
	ret
.seh_endproc
.Lc738:

.section .text.n_system_$$_pos$unicodestring$unicodestring$int64$$int64,"x"
	.balign 16,0x90
.globl	SYSTEM_$$_POS$UNICODESTRING$UNICODESTRING$INT64$$INT64
SYSTEM_$$_POS$UNICODESTRING$UNICODESTRING$INT64$$INT64:
.Lc740:
.seh_proc SYSTEM_$$_POS$UNICODESTRING$UNICODESTRING$INT64$$INT64
# [192] begin
	pushq	%rbx
.seh_pushreg %rbx
	pushq	%rdi
.seh_pushreg %rdi
	pushq	%rsi
.seh_pushreg %rsi
	pushq	%r12
.seh_pushreg %r12
	pushq	%r13
.seh_pushreg %r13
	leaq	-32(%rsp),%rsp
.Lc742:
.seh_stackalloc 32
.seh_endprologue
# Var $result located in register rax
# Var i located in register r13
	movq	%rcx,%rbx
# Var needle located in register rbx
	movq	%rdx,%rsi
# Var haystack located in register rsi
# Var offset located in register r8
# Var $result located in register rdi
# [193] result := -1;
	movq	$-1,%rdi
# [194] for i := offset to length(haystack)-length(needle)+1 do
	movq	%rsi,%rax
	testq	%rsi,%rsi
	je	.Lj1351
	movq	-8(%rax),%rax
.Lj1351:
	movq	%rbx,%rdx
	testq	%rbx,%rbx
	je	.Lj1352
	movq	-8(%rdx),%rdx
.Lj1352:
	subq	%rdx,%rax
	leaq	1(%rax),%r12
	cmpq	%r8,%r12
	jnge	.Lj1354
	leaq	-1(%r8),%r13
	.balign 8,0x90
.Lj1355:
	addq	$1,%r13
# [195] if CompareByte(needle[1], haystack[i], length(needle)) = 0 then
	movq	%rbx,%r8
	testq	%rbx,%rbx
	je	.Lj1358
	movq	-8(%r8),%r8
.Lj1358:
	leaq	-2(%rsi,%r13,2),%rdx
	movq	%rbx,%rcx
	call	SYSTEM_$$_COMPAREBYTE$formal$formal$QWORD$$INT64
	testq	%rax,%rax
	jne	.Lj1360
# [196] exit(i);
	movq	%r13,%rdi
	jmp	.Lj1349
	.balign 4,0x90
.Lj1360:
	cmpq	%r13,%r12
	jnle	.Lj1355
	.balign 4,0x90
.Lj1354:
.Lj1349:
# [197] end;
	movq	%rdi,%rax
	nop
	leaq	32(%rsp),%rsp
	popq	%r13
	popq	%r12
	popq	%rsi
	popq	%rdi
	popq	%rbx
	ret
.seh_endproc
.Lc741:

.section .text.n_system$_$pos$widestring$widestring$int64$$int64_$$_fin$00000278,"x"
	.balign 16,0x90
SYSTEM$_$POS$WIDESTRING$WIDESTRING$INT64$$INT64_$$_fin$00000278:
.Lc743:
.seh_proc SYSTEM$_$POS$WIDESTRING$WIDESTRING$INT64$$INT64_$$_fin$00000278
# [202] end;
	pushq	%rbp
.seh_pushreg %rbp
.Lc745:
.Lc746:
	movq	%rcx,%rbp
.Lc747:
	leaq	-32(%rsp),%rsp
.seh_stackalloc 32
.seh_endprologue
# [200] begin
	leaq	-32(%rbp),%rcx
	call	fpc_unicodestr_decr_ref
	leaq	-16(%rbp),%rcx
	call	fpc_unicodestr_decr_ref
	nop
	leaq	32(%rsp),%rsp
	popq	%rbp
	ret
.seh_endproc
.Lc744:

.section .text.n_system_$$_pos$widestring$widestring$int64$$int64,"x"
	.balign 16,0x90
.globl	SYSTEM_$$_POS$WIDESTRING$WIDESTRING$INT64$$INT64
SYSTEM_$$_POS$WIDESTRING$WIDESTRING$INT64$$INT64:
.Lc748:
# Temps allocated between rbp-56 and rbp+0
.seh_proc SYSTEM_$$_POS$WIDESTRING$WIDESTRING$INT64$$INT64
	pushq	%rbp
.seh_pushreg %rbp
.Lc750:
.Lc751:
	movq	%rsp,%rbp
.Lc752:
	leaq	-96(%rsp),%rsp
.seh_stackalloc 96
	movq	%rbx,-56(%rbp)
	movq	%rdi,-48(%rbp)
	movq	%rsi,-40(%rbp)
.seh_savereg %rbx, 40
.seh_savereg %rdi, 48
.seh_savereg %rsi, 56
.seh_endprologue
# Var $result located in register rbx
	movq	%rcx,%rbx
# Var needle located in register rbx
# Var haystack located in register rdx
	movq	%r8,%rsi
# Var offset located in register rsi
	movq	$0,-32(%rbp)
	movq	$0,-16(%rbp)
.Lj1369:
	nop
.Lj1365:
# [201] result := pos(unicodestring(needle), unicodestring(haystack), offset);
	leaq	-16(%rbp),%rcx
	call	fpc_widestr_to_unicodestr
	movq	-16(%rbp),%rax
	movq	%rax,-8(%rbp)
	movq	%rbx,%rdx
	leaq	-32(%rbp),%rcx
	call	fpc_widestr_to_unicodestr
	movq	-32(%rbp),%rax
	movq	%rax,-24(%rbp)
	movq	$-1,%rbx
	movq	-8(%rbp),%rax
	testq	%rax,%rax
	je	.Lj1371
	movq	-8(%rax),%rax
.Lj1371:
	movq	-24(%rbp),%rdx
	testq	%rdx,%rdx
	je	.Lj1372
	movq	-8(%rdx),%rdx
.Lj1372:
	subq	%rdx,%rax
	leaq	1(%rax),%rdi
	cmpq	%rsi,%rdi
	jnge	.Lj1374
	subq	$1,%rsi
	.balign 8,0x90
.Lj1375:
	addq	$1,%rsi
	movq	-24(%rbp),%rcx
	movq	-24(%rbp),%r8
	testq	%r8,%r8
	je	.Lj1378
	movq	-8(%r8),%r8
.Lj1378:
	movq	-8(%rbp),%rax
	leaq	-2(%rax,%rsi,2),%rdx
	call	SYSTEM_$$_COMPAREBYTE$formal$formal$QWORD$$INT64
	testq	%rax,%rax
	jne	.Lj1380
	movq	%rsi,%rbx
	jmp	.Lj1370
	.balign 4,0x90
.Lj1380:
	cmpq	%rsi,%rdi
	jnle	.Lj1375
	.balign 4,0x90
.Lj1374:
.Lj1370:
.Lj1367:
	nop
.Lj1366:
	movq	%rbp,%rcx
	call	SYSTEM$_$POS$WIDESTRING$WIDESTRING$INT64$$INT64_$$_fin$00000278
	movq	%rbx,%rax
	movq	-56(%rbp),%rbx
	movq	-48(%rbp),%rdi
	movq	-40(%rbp),%rsi
	leaq	(%rbp),%rsp
	popq	%rbp
	ret
.seh_handler __FPC_specific_handler,@unwind
.seh_handlerdata
	.long	1
	.long	0
	.rva	.Lj1365
	.rva	.Lj1366
	.rva	SYSTEM$_$POS$WIDESTRING$WIDESTRING$INT64$$INT64_$$_fin$00000278

.section .text.n_system_$$_pos$widestring$widestring$int64$$int64,"x"
.seh_endproc
.Lc749:

.section .text.n_system_$$_getmem$qword$$pointer,"x"
	.balign 16,0x90
.globl	SYSTEM_$$_GETMEM$QWORD$$POINTER
SYSTEM_$$_GETMEM$QWORD$$POINTER:
.Lc753:
.seh_proc SYSTEM_$$_GETMEM$QWORD$$POINTER
# [heap.inc]
# [53] begin
	leaq	-40(%rsp),%rsp
.Lc755:
.seh_stackalloc 40
.seh_endprologue
# Var $result located in register rax
# Var size located in register rcx
# Var size located in register rcx
# [54] result := xgetmem(size);
	call	XMM_$$_XGETMEM$QWORD$$POINTER
# Var $result located in register rax
# [55] end;
	nop
	leaq	40(%rsp),%rsp
	ret
.seh_endproc
.Lc754:

.section .text.n_system_$$_getmem$pointer$qword$$pointer,"x"
	.balign 16,0x90
.globl	SYSTEM_$$_GETMEM$POINTER$QWORD$$POINTER
SYSTEM_$$_GETMEM$POINTER$QWORD$$POINTER:
.Lc756:
.seh_proc SYSTEM_$$_GETMEM$POINTER$QWORD$$POINTER
# [58] begin
	pushq	%rbx
.seh_pushreg %rbx
	leaq	-32(%rsp),%rsp
.Lc758:
.seh_stackalloc 32
.seh_endprologue
# Var $result located in register rax
	movq	%rcx,%rbx
# Var p located in register rbx
	movq	%rdx,%rcx
# Var size located in register rcx
# Var size located in register rcx
# [59] result := xgetmem(size);
	call	XMM_$$_XGETMEM$QWORD$$POINTER
# Var $result located in register rax
# Var $result located in register rax
# [60] p := result;
	movq	%rax,(%rbx)
# [61] end;
	nop
	leaq	32(%rsp),%rsp
	popq	%rbx
	ret
.seh_endproc
.Lc757:

.section .text.n_system_$$_freemem$pointer$$qword,"x"
	.balign 16,0x90
.globl	SYSTEM_$$_FREEMEM$POINTER$$QWORD
SYSTEM_$$_FREEMEM$POINTER$$QWORD:
.Lc759:
.seh_proc SYSTEM_$$_FREEMEM$POINTER$$QWORD
# [64] begin
	leaq	-40(%rsp),%rsp
.Lc761:
.seh_stackalloc 40
.seh_endprologue
# Var $result located in register rax
# Var p located in register rcx
# Var p located in register rcx
# [65] result := xfreemem(p);
	call	_$dll$rtllib$xfreemem
# Var $result located in register rax
# [66] end;
	nop
	leaq	40(%rsp),%rsp
	ret
.seh_endproc
.Lc760:

.section .text.n_system_$$_freememsize$pointer$qword$$qword,"x"
	.balign 16,0x90
.globl	SYSTEM_$$_FREEMEMSIZE$POINTER$QWORD$$QWORD
SYSTEM_$$_FREEMEMSIZE$POINTER$QWORD$$QWORD:
.Lc762:
.seh_proc SYSTEM_$$_FREEMEMSIZE$POINTER$QWORD$$QWORD
# [69] begin
	leaq	-40(%rsp),%rsp
.Lc764:
.seh_stackalloc 40
.seh_endprologue
# Var $result located in register rax
# Var p located in register rcx
# Var size located in register rdx
# Var p located in register rcx
# [70] result := xfreemem(p);
	call	_$dll$rtllib$xfreemem
# Var $result located in register rax
# [71] end;
	nop
	leaq	40(%rsp),%rsp
	ret
.seh_endproc
.Lc763:

.section .text.n_system_$$_allocmem$qword$$pointer,"x"
	.balign 16,0x90
.globl	SYSTEM_$$_ALLOCMEM$QWORD$$POINTER
SYSTEM_$$_ALLOCMEM$QWORD$$POINTER:
.Lc765:
.seh_proc SYSTEM_$$_ALLOCMEM$QWORD$$POINTER
# [74] begin
	pushq	%rbx
.seh_pushreg %rbx
	pushq	%rsi
.seh_pushreg %rsi
	leaq	-40(%rsp),%rsp
.Lc767:
.seh_stackalloc 40
.seh_endprologue
# Var $result located in register rax
	movq	%rcx,%rsi
# Var size located in register rsi
# Var size located in register rsi
# [75] result := xallocmem(size);
	call	XMM_$$_XGETMEM$QWORD$$POINTER
	movq	%rax,%rbx
	testq	%rax,%rax
	je	.Lj1391
	.balign 4,0x90
	movq	%rsi,%rdx
	xorl	%r8d,%r8d
	movq	%rbx,%rcx
	call	_$dll$kernel32$RtlFillMemory
.Lj1391:
	movq	%rbx,%rax
# [76] end;
	nop
	leaq	40(%rsp),%rsp
	popq	%rsi
	popq	%rbx
	ret
.seh_endproc
.Lc766:

.section .text.n_system_$$_reallocmem$pointer$qword$$pointer,"x"
	.balign 16,0x90
.globl	SYSTEM_$$_REALLOCMEM$POINTER$QWORD$$POINTER
SYSTEM_$$_REALLOCMEM$POINTER$QWORD$$POINTER:
.Lc768:
.seh_proc SYSTEM_$$_REALLOCMEM$POINTER$QWORD$$POINTER
# [79] begin
	leaq	-40(%rsp),%rsp
.Lc770:
.seh_stackalloc 40
.seh_endprologue
# Var $result located in register rax
# Var p located in register rcx
# Var size located in register rdx
# Var size located in register rdx
# [80] result := xreallocmem(p, size);
	call	XMM_$$_XREALLOCMEM$POINTER$QWORD$$POINTER
# Var $result located in register rax
# [81] end;
	nop
	leaq	40(%rsp),%rsp
	ret
.seh_endproc
.Lc769:

.section .text.n_system_$$_memsize$pointer$$qword,"x"
	.balign 16,0x90
.globl	SYSTEM_$$_MEMSIZE$POINTER$$QWORD
SYSTEM_$$_MEMSIZE$POINTER$$QWORD:
.Lc771:
.seh_proc SYSTEM_$$_MEMSIZE$POINTER$$QWORD
# [84] begin
	leaq	-40(%rsp),%rsp
.Lc773:
.seh_stackalloc 40
.seh_endprologue
# Var $result located in register rax
# Var p located in register rcx
# Var p located in register rcx
# [85] result := xmemsize(p);
	call	XMM_$$_XMEMSIZE$POINTER$$QWORD
# Var $result located in register rax
# [86] end;
	nop
	leaq	40(%rsp),%rsp
	ret
.seh_endproc
.Lc772:

.section .text.n_system_$$_move$formal$formal$qword,"x"
	.balign 16,0x90
.globl	SYSTEM_$$_MOVE$formal$formal$QWORD
SYSTEM_$$_MOVE$formal$formal$QWORD:
.Lc774:
.seh_proc SYSTEM_$$_MOVE$formal$formal$QWORD
# [91] begin
	pushq	%rbx
.seh_pushreg %rbx
	leaq	-32(%rsp),%rsp
.Lc776:
.seh_stackalloc 32
.seh_endprologue
	movq	%rcx,%rax
# Var src located in register rax
	movq	%rdx,%rcx
# Var dst located in register rcx
	movq	%r8,%rbx
# Var count located in register rbx
# [92] xmovemem(@src, @dst, count);
	movq	%rax,%rdx
# Var count located in register rbx
	movq	%rbx,%r8
	call	_$dll$kernel32$RtlMoveMemory
# Var count located in register rbx
	movq	%rbx,%rax
# [93] end;
	nop
	leaq	32(%rsp),%rsp
	popq	%rbx
	ret
.seh_endproc
.Lc775:

.section .text.n_system_$$_fillchar$formal$qword$char,"x"
	.balign 16,0x90
.globl	SYSTEM_$$_FILLCHAR$formal$QWORD$CHAR
SYSTEM_$$_FILLCHAR$formal$QWORD$CHAR:
.Lc777:
.seh_proc SYSTEM_$$_FILLCHAR$formal$QWORD$CHAR
# [96] begin
	pushq	%rbx
.seh_pushreg %rbx
	leaq	-32(%rsp),%rsp
.Lc779:
.seh_stackalloc 32
.seh_endprologue
	movq	%rcx,%rax
# Var x located in register rax
	movq	%rdx,%rbx
# Var count located in register rbx
# Var value located in register r8b
# [97] xfillmem(@x, count, ord(value));
	movq	%rax,%rcx
	andl	$255,%r8d
# Var count located in register rbx
	movq	%rbx,%rdx
	call	_$dll$kernel32$RtlFillMemory
# Var count located in register rbx
	movq	%rbx,%rax
# [98] end;
	nop
	leaq	32(%rsp),%rsp
	popq	%rbx
	ret
.seh_endproc
.Lc778:

.section .text.n_system_$$_fillchar$formal$qword$byte,"x"
	.balign 16,0x90
.globl	SYSTEM_$$_FILLCHAR$formal$QWORD$BYTE
SYSTEM_$$_FILLCHAR$formal$QWORD$BYTE:
.Lc780:
.seh_proc SYSTEM_$$_FILLCHAR$formal$QWORD$BYTE
# [101] begin
	pushq	%rbx
.seh_pushreg %rbx
	leaq	-32(%rsp),%rsp
.Lc782:
.seh_stackalloc 32
.seh_endprologue
	movq	%rcx,%rax
# Var x located in register rax
	movq	%rdx,%rbx
# Var count located in register rbx
# Var value located in register r8b
# [102] xfillmem(@x, count, value);
	movq	%rax,%rcx
	andl	$255,%r8d
